

Microchip MPLAB XC8 Assembler V2.32 build 20210201212658 
                                                                                               Sun Aug 14 10:30:27 2022

Microchip MPLAB XC8 C Compiler v2.32 (Free license) build 20210201212658 Og1 
     1                           	processor	16F887
     2                           	pagewidth 120
     3                           	opt	flic
     4                           	psect	idataBANK1,global,class=CODE,delta=2,noexec
     5                           	psect	nvBANK0,global,class=BANK0,space=1,delta=1,noexec
     6                           	psect	cinit,global,class=CODE,merge=1,delta=2
     7                           	psect	bssBANK0,global,class=BANK0,space=1,delta=1,noexec
     8                           	psect	dataBANK1,global,class=BANK1,space=1,delta=1,noexec
     9                           	psect	inittext,global,class=CODE,delta=2
    10                           	psect	cstackBANK1,global,class=BANK1,space=1,delta=1,noexec
    11                           	psect	cstackCOMMON,global,class=COMMON,space=1,delta=1,noexec
    12                           	psect	cstackBANK0,global,class=BANK0,space=1,delta=1,noexec
    13                           	psect	maintext,global,class=CODE,split=1,delta=2
    14                           	psect	text1,local,class=CODE,merge=1,delta=2,group=1
    15                           	psect	text2,local,class=CODE,merge=1,delta=2,group=1
    16                           	psect	text3,local,class=CODE,merge=1,delta=2,group=1
    17                           	psect	text4,local,class=CODE,merge=1,delta=2,group=1
    18                           	psect	text5,local,class=CODE,merge=1,delta=2,group=1
    19                           	psect	text6,local,class=CODE,merge=1,delta=2,group=1
    20                           	psect	text7,local,class=CODE,merge=1,delta=2,group=1
    21                           	psect	text8,local,class=CODE,merge=1,delta=2
    22                           	psect	text9,local,class=CODE,merge=1,delta=2
    23                           	psect	text10,local,class=CODE,merge=1,delta=2
    24                           	psect	intentry,global,class=CODE,delta=2
    25                           	psect	text11,local,class=CODE,merge=1,delta=2
    26                           	psect	text12,local,class=CODE,merge=1,delta=2
    27                           	psect	text13,local,class=CODE,merge=1,delta=2,group=1
    28                           	psect	text14,local,class=CODE,merge=1,delta=2,group=1
    29                           	psect	config,global,abs,ovrld,class=CONFIG,space=4,delta=2,noexec
    30                           	dabs	1,0x7E,2
    31  0000                     
    32                           ; Version 2.20
    33                           ; Generated 12/02/2020 GMT
    34                           ; 
    35                           ; Copyright © 2020, Microchip Technology Inc. and its subsidiaries ("Microchip")
    36                           ; All rights reserved.
    37                           ; 
    38                           ; This software is developed by Microchip Technology Inc. and its subsidiaries ("Microch
      +                          ip").
    39                           ; 
    40                           ; Redistribution and use in source and binary forms, with or without modification, are
    41                           ; permitted provided that the following conditions are met:
    42                           ; 
    43                           ;     1. Redistributions of source code must retain the above copyright notice, this lis
      +                          t of
    44                           ;        conditions and the following disclaimer.
    45                           ; 
    46                           ;     2. Redistributions in binary form must reproduce the above copyright notice, this 
      +                          list
    47                           ;        of conditions and the following disclaimer in the documentation and/or other
    48                           ;        materials provided with the distribution.
    49                           ; 
    50                           ;     3. Microchip's name may not be used to endorse or promote products derived from th
      +                          is
    51                           ;        software without specific prior written permission.
    52                           ; 
    53                           ; THIS SOFTWARE IS PROVIDED BY MICROCHIP "AS IS" AND ANY EXPRESS OR IMPLIED WARRANTIES,
    54                           ; INCLUDING, BUT NOT LIMITED TO, THE IMPLIED WARRANTIES OF MERCHANTABILITY AND FITNESS F
      +                          OR
    55                           ; PURPOSE ARE DISCLAIMED.  IN NO EVENT SHALL MICROCHIP BE LIABLE FOR ANY DIRECT, INDIREC
      +                          T,
    56                           ; INCIDENTAL, SPECIAL, EXEMPLARY, OR CONSEQUENTIAL DAMAGES (INCLUDING BUT NOT LIMITED TO
    57                           ; PROCUREMENT OF SUBSTITUTE GOODS OR SERVICES; LOSS OF USE, DATA OR PROFITS; OR BUSINESS
    58                           ; INTERRUPTION) HOWSOEVER CAUSED AND ON ANY THEORY OF LIABILITY, WHETHER IN CONTRACT, ST
      +                          RICT
    59                           ; LIABILITY, OR TORT (INCLUDING NEGLIGENCE OR OTHERWISE) ARISING IN ANY WAY OUT OF THE U
      +                          SE OF
    60                           ; THIS SOFTWARE, EVEN IF ADVISED OF THE POSSIBILITY OF SUCH DAMAGE.
    61                           ; 
    62                           ; 
    63                           ; Code-generator required, PIC16F887 Definitions
    64                           ; 
    65                           ; SFR Addresses
    66  0000                     	;# 
    67  0001                     	;# 
    68  0002                     	;# 
    69  0003                     	;# 
    70  0004                     	;# 
    71  0005                     	;# 
    72  0006                     	;# 
    73  0007                     	;# 
    74  0008                     	;# 
    75  0009                     	;# 
    76  000A                     	;# 
    77  000B                     	;# 
    78  000C                     	;# 
    79  000D                     	;# 
    80  000E                     	;# 
    81  000E                     	;# 
    82  000F                     	;# 
    83  0010                     	;# 
    84  0011                     	;# 
    85  0012                     	;# 
    86  0013                     	;# 
    87  0014                     	;# 
    88  0015                     	;# 
    89  0015                     	;# 
    90  0016                     	;# 
    91  0017                     	;# 
    92  0018                     	;# 
    93  0019                     	;# 
    94  001A                     	;# 
    95  001B                     	;# 
    96  001B                     	;# 
    97  001C                     	;# 
    98  001D                     	;# 
    99  001E                     	;# 
   100  001F                     	;# 
   101  0081                     	;# 
   102  0085                     	;# 
   103  0086                     	;# 
   104  0087                     	;# 
   105  0088                     	;# 
   106  0089                     	;# 
   107  008C                     	;# 
   108  008D                     	;# 
   109  008E                     	;# 
   110  008F                     	;# 
   111  0090                     	;# 
   112  0091                     	;# 
   113  0092                     	;# 
   114  0093                     	;# 
   115  0093                     	;# 
   116  0093                     	;# 
   117  0094                     	;# 
   118  0095                     	;# 
   119  0096                     	;# 
   120  0097                     	;# 
   121  0098                     	;# 
   122  0099                     	;# 
   123  009A                     	;# 
   124  009B                     	;# 
   125  009C                     	;# 
   126  009D                     	;# 
   127  009E                     	;# 
   128  009F                     	;# 
   129  0105                     	;# 
   130  0107                     	;# 
   131  0108                     	;# 
   132  0109                     	;# 
   133  010C                     	;# 
   134  010C                     	;# 
   135  010D                     	;# 
   136  010E                     	;# 
   137  010F                     	;# 
   138  0185                     	;# 
   139  0187                     	;# 
   140  0188                     	;# 
   141  0189                     	;# 
   142  018C                     	;# 
   143  018D                     	;# 
   144  0000                     	;# 
   145  0001                     	;# 
   146  0002                     	;# 
   147  0003                     	;# 
   148  0004                     	;# 
   149  0005                     	;# 
   150  0006                     	;# 
   151  0007                     	;# 
   152  0008                     	;# 
   153  0009                     	;# 
   154  000A                     	;# 
   155  000B                     	;# 
   156  000C                     	;# 
   157  000D                     	;# 
   158  000E                     	;# 
   159  000E                     	;# 
   160  000F                     	;# 
   161  0010                     	;# 
   162  0011                     	;# 
   163  0012                     	;# 
   164  0013                     	;# 
   165  0014                     	;# 
   166  0015                     	;# 
   167  0015                     	;# 
   168  0016                     	;# 
   169  0017                     	;# 
   170  0018                     	;# 
   171  0019                     	;# 
   172  001A                     	;# 
   173  001B                     	;# 
   174  001B                     	;# 
   175  001C                     	;# 
   176  001D                     	;# 
   177  001E                     	;# 
   178  001F                     	;# 
   179  0081                     	;# 
   180  0085                     	;# 
   181  0086                     	;# 
   182  0087                     	;# 
   183  0088                     	;# 
   184  0089                     	;# 
   185  008C                     	;# 
   186  008D                     	;# 
   187  008E                     	;# 
   188  008F                     	;# 
   189  0090                     	;# 
   190  0091                     	;# 
   191  0092                     	;# 
   192  0093                     	;# 
   193  0093                     	;# 
   194  0093                     	;# 
   195  0094                     	;# 
   196  0095                     	;# 
   197  0096                     	;# 
   198  0097                     	;# 
   199  0098                     	;# 
   200  0099                     	;# 
   201  009A                     	;# 
   202  009B                     	;# 
   203  009C                     	;# 
   204  009D                     	;# 
   205  009E                     	;# 
   206  009F                     	;# 
   207  0105                     	;# 
   208  0107                     	;# 
   209  0108                     	;# 
   210  0109                     	;# 
   211  010C                     	;# 
   212  010C                     	;# 
   213  010D                     	;# 
   214  010E                     	;# 
   215  010F                     	;# 
   216  0185                     	;# 
   217  0187                     	;# 
   218  0188                     	;# 
   219  0189                     	;# 
   220  018C                     	;# 
   221  018D                     	;# 
   222                           
   223                           	psect	idataBANK1
   224  07EE                     __pidataBANK1:
   225                           
   226                           ;initializer for _Segments_Code
   227  07EE  343F               	retlw	63
   228  07EF  3406               	retlw	6
   229  07F0  345B               	retlw	91
   230  07F1  344F               	retlw	79
   231  07F2  3466               	retlw	102
   232  07F3  346D               	retlw	109
   233  07F4  347D               	retlw	125
   234  07F5  3407               	retlw	7
   235  07F6  347F               	retlw	127
   236  07F7  346F               	retlw	111
   237                           
   238                           	psect	nvBANK0
   239  005A                     __pnvBANK0:
   240  005A                     _Vin:
   241  005A                     	ds	4
   242  005E                     _ADC_Value:
   243  005E                     	ds	2
   244  001E                     _ADRESH	set	30
   245  001F                     _ADCON0	set	31
   246  0008                     _PORTDbits	set	8
   247  000B                     _INTCONbits	set	11
   248  0007                     _PORTCbits	set	7
   249  0008                     _PORTD	set	8
   250  000B                     _INTCON	set	11
   251  0001                     _TMR0	set	1
   252  00F9                     _GO_DONE	set	249
   253  00F9                     _GO	set	249
   254  009E                     _ADRESL	set	158
   255  009F                     _ADCON1	set	159
   256  0087                     _TRISCbits	set	135
   257  0088                     _TRISD	set	136
   258  0081                     _OPTION_REG	set	129
   259                           
   260                           	psect	cinit
   261  0013                     start_initialization:	
   262                           ; #config settings
   263                           
   264  0013                     __initialization:
   265                           
   266                           ; Initialize objects allocated to BANK1
   267  0013  1383               	bcf	3,7	;select IRP bank0
   268  0014  30CC               	movlw	low (__pdataBANK1+10)
   269  0015  00FD               	movwf	btemp+-1
   270  0016  3007               	movlw	high __pidataBANK1
   271  0017  00FE               	movwf	btemp
   272  0018  30EE               	movlw	low __pidataBANK1
   273  0019  00FF               	movwf	btemp+1
   274  001A  30C2               	movlw	low __pdataBANK1
   275  001B  0084               	movwf	4
   276  001C  120A  158A  2284  120A  118A  	fcall	init_ram0
   277                           
   278                           ; Clear objects allocated to BANK0
   279  0021  01D1               	clrf	__pbssBANK0& (0+127)
   280  0022  01D2               	clrf	(__pbssBANK0+1)& (0+127)
   281  0023  01D3               	clrf	(__pbssBANK0+2)& (0+127)
   282  0024  01D4               	clrf	(__pbssBANK0+3)& (0+127)
   283  0025  01D5               	clrf	(__pbssBANK0+4)& (0+127)
   284  0026  01D6               	clrf	(__pbssBANK0+5)& (0+127)
   285  0027  01D7               	clrf	(__pbssBANK0+6)& (0+127)
   286  0028  01D8               	clrf	(__pbssBANK0+7)& (0+127)
   287  0029  01D9               	clrf	(__pbssBANK0+8)& (0+127)
   288  002A                     end_of_initialization:	
   289                           ;End of C runtime variable initialization code
   290                           
   291  002A                     __end_of__initialization:
   292  002A  0183               	clrf	3
   293  002B  120A  118A  2D8D   	ljmp	_main	;jump to C main() function
   294                           
   295                           	psect	bssBANK0
   296  0051                     __pbssBANK0:
   297  0051                     _Vin_convert:
   298  0051                     	ds	4
   299  0055                     _Digits:
   300  0055                     	ds	4
   301  0059                     _check:
   302  0059                     	ds	1
   303                           
   304                           	psect	dataBANK1
   305  00C2                     __pdataBANK1:
   306  00C2                     _Segments_Code:
   307  00C2                     	ds	10
   308                           
   309                           	psect	inittext
   310  0A80                     init_fetch0:	
   311                           ;	Called with low address in FSR and high address in W
   312                           
   313  0A80  087E               	movf	btemp,w
   314  0A81  008A               	movwf	10
   315  0A82  087F               	movf	btemp+1,w
   316  0A83  0082               	movwf	2
   317  0A84                     init_ram0:	
   318                           ;Called with:
   319                           ;	high address of idata address in btemp 
   320                           ;	low address of idata address in btemp+1 
   321                           ;	low address of data in FSR
   322                           ;	high address + 1 of data in btemp-1
   323                           
   324  0A84  120A  158A  2280  120A  158A  	fcall	init_fetch0
   325  0A89  0080               	movwf	0
   326  0A8A  0A84               	incf	4,f
   327  0A8B  0804               	movf	4,w
   328  0A8C  067D               	xorwf	btemp+-1,w
   329  0A8D  1903               	btfsc	3,2
   330  0A8E  3400               	retlw	0
   331  0A8F  0AFF               	incf	btemp+1,f
   332  0A90  1903               	btfsc	3,2
   333  0A91  0AFE               	incf	btemp,f
   334  0A92  2A84               	goto	init_ram0
   335                           
   336                           	psect	cstackBANK1
   337  00A0                     __pcstackBANK1:
   338  00A0                     ___flmul@sign:
   339                           
   340                           ; 1 bytes @ 0x0
   341  00A0                     	ds	1
   342  00A1                     ___flmul@aexp:
   343                           
   344                           ; 1 bytes @ 0x1
   345  00A1                     	ds	1
   346  00A2                     ___flmul@grs:
   347                           
   348                           ; 4 bytes @ 0x2
   349  00A2                     	ds	4
   350  00A6                     ___flmul@bexp:
   351                           
   352                           ; 1 bytes @ 0x6
   353  00A6                     	ds	1
   354  00A7                     ___flmul@prod:
   355                           
   356                           ; 4 bytes @ 0x7
   357  00A7                     	ds	4
   358  00AB                     ___flmul@temp:
   359                           
   360                           ; 2 bytes @ 0xB
   361  00AB                     	ds	2
   362  00AD                     ??___fldiv:
   363                           
   364                           ; 1 bytes @ 0xD
   365  00AD                     	ds	5
   366  00B2                     ___fldiv@rem:
   367                           
   368                           ; 4 bytes @ 0x12
   369  00B2                     	ds	4
   370  00B6                     ___fldiv@sign:
   371                           
   372                           ; 1 bytes @ 0x16
   373  00B6                     	ds	1
   374  00B7                     ___fldiv@new_exp:
   375                           
   376                           ; 2 bytes @ 0x17
   377  00B7                     	ds	2
   378  00B9                     ___fldiv@grs:
   379                           
   380                           ; 4 bytes @ 0x19
   381  00B9                     	ds	4
   382  00BD                     ___fldiv@bexp:
   383                           
   384                           ; 1 bytes @ 0x1D
   385  00BD                     	ds	1
   386  00BE                     ___fldiv@aexp:
   387                           
   388                           ; 1 bytes @ 0x1E
   389  00BE                     	ds	1
   390  00BF                     ??_main:
   391                           
   392                           ; 1 bytes @ 0x1F
   393  00BF                     	ds	3
   394                           
   395                           	psect	cstackCOMMON
   396  0070                     __pcstackCOMMON:
   397  0070                     ?_ADC_Init:
   398  0070                     ?_display_data:	
   399                           ; 1 bytes @ 0x0
   400                           
   401  0070                     ??_display_data:	
   402                           ; 1 bytes @ 0x0
   403                           
   404  0070                     ?_main:	
   405                           ; 1 bytes @ 0x0
   406                           
   407  0070                     ?_SevenSeg1_Write:	
   408                           ; 1 bytes @ 0x0
   409                           
   410  0070                     ?_ISR:	
   411                           ; 1 bytes @ 0x0
   412                           
   413  0070                     ?___lldiv:	
   414                           ; 1 bytes @ 0x0
   415                           
   416  0070                     ___lldiv@divisor:	
   417                           ; 4 bytes @ 0x0
   418                           
   419                           
   420                           ; 4 bytes @ 0x0
   421  0070                     	ds	4
   422  0074                     ___lldiv@dividend:
   423                           
   424                           ; 4 bytes @ 0x4
   425  0074                     	ds	4
   426  0078                     ??___lldiv:
   427                           
   428                           ; 1 bytes @ 0x8
   429  0078                     	ds	1
   430  0079                     ___lldiv@quotient:
   431                           
   432                           ; 4 bytes @ 0x9
   433  0079                     	ds	4
   434  007D                     ___lldiv@counter:
   435                           
   436                           ; 1 bytes @ 0xD
   437  007D                     	ds	1
   438                           
   439                           	psect	cstackBANK0
   440  0020                     __pcstackBANK0:
   441  0020                     ?___llmod:
   442  0020                     ___llmod@divisor:	
   443                           ; 4 bytes @ 0x0
   444                           
   445                           
   446                           ; 4 bytes @ 0x0
   447  0020                     	ds	4
   448  0024                     ___llmod@dividend:
   449                           
   450                           ; 4 bytes @ 0x4
   451  0024                     	ds	4
   452  0028                     ??___llmod:
   453                           
   454                           ; 1 bytes @ 0x8
   455  0028                     	ds	1
   456  0029                     ___llmod@counter:
   457                           
   458                           ; 1 bytes @ 0x9
   459  0029                     	ds	1
   460  002A                     ??_SevenSeg1_Write:
   461                           
   462                           ; 1 bytes @ 0xA
   463  002A                     	ds	1
   464  002B                     ??_ISR:
   465                           
   466                           ; 1 bytes @ 0xB
   467  002B                     	ds	3
   468  002E                     ?___flge:
   469  002E                     ??_ADC_Init:	
   470                           ; 1 bit 
   471                           
   472  002E                     ?_ADC_Read:	
   473                           ; 1 bytes @ 0xE
   474                           
   475  002E                     ?__Umul8_16:	
   476                           ; 2 bytes @ 0xE
   477                           
   478  002E                     ?___fltol:	
   479                           ; 2 bytes @ 0xE
   480                           
   481  002E                     ?___xxtofl:	
   482                           ; 4 bytes @ 0xE
   483                           
   484  002E                     __Umul8_16@multiplicand:	
   485                           ; 4 bytes @ 0xE
   486                           
   487  002E                     ADC_Read@ADC_channel:	
   488                           ; 1 bytes @ 0xE
   489                           
   490  002E                     ___flge@ff1:	
   491                           ; 2 bytes @ 0xE
   492                           
   493  002E                     ___fltol@f1:	
   494                           ; 4 bytes @ 0xE
   495                           
   496  002E                     ___xxtofl@val:	
   497                           ; 4 bytes @ 0xE
   498                           
   499                           
   500                           ; 4 bytes @ 0xE
   501  002E                     	ds	2
   502  0030                     ??_ADC_Read:
   503  0030                     ??__Umul8_16:	
   504                           ; 1 bytes @ 0x10
   505                           
   506                           
   507                           ; 1 bytes @ 0x10
   508  0030                     	ds	2
   509  0032                     ??___fltol:
   510  0032                     ??___xxtofl:	
   511                           ; 1 bytes @ 0x12
   512                           
   513  0032                     __Umul8_16@product:	
   514                           ; 1 bytes @ 0x12
   515                           
   516  0032                     ___flge@ff2:	
   517                           ; 2 bytes @ 0x12
   518                           
   519                           
   520                           ; 4 bytes @ 0x12
   521  0032                     	ds	2
   522  0034                     __Umul8_16@word_mpld:
   523                           
   524                           ; 2 bytes @ 0x14
   525  0034                     	ds	2
   526  0036                     ??___flge:
   527  0036                     __Umul8_16@multiplier:	
   528                           ; 1 bytes @ 0x16
   529                           
   530  0036                     ___xxtofl@sign:	
   531                           ; 1 bytes @ 0x16
   532                           
   533                           
   534                           ; 1 bytes @ 0x16
   535  0036                     	ds	1
   536  0037                     ___fltol@sign1:
   537  0037                     ___xxtofl@exp:	
   538                           ; 1 bytes @ 0x17
   539                           
   540                           
   541                           ; 1 bytes @ 0x17
   542  0037                     	ds	1
   543  0038                     ___fltol@exp1:
   544  0038                     ___xxtofl@arg:	
   545                           ; 1 bytes @ 0x18
   546                           
   547                           
   548                           ; 4 bytes @ 0x18
   549  0038                     	ds	1
   550  0039                     ?___lmul:
   551  0039                     ___lmul@multiplier:	
   552                           ; 4 bytes @ 0x19
   553                           
   554                           
   555                           ; 4 bytes @ 0x19
   556  0039                     	ds	3
   557  003C                     ?___flmul:
   558  003C                     ___flmul@b:	
   559                           ; 4 bytes @ 0x1C
   560                           
   561                           
   562                           ; 4 bytes @ 0x1C
   563  003C                     	ds	1
   564  003D                     ___lmul@multiplicand:
   565                           
   566                           ; 4 bytes @ 0x1D
   567  003D                     	ds	3
   568  0040                     ___flmul@a:
   569                           
   570                           ; 4 bytes @ 0x20
   571  0040                     	ds	1
   572  0041                     ??___lmul:
   573                           
   574                           ; 1 bytes @ 0x21
   575  0041                     	ds	1
   576  0042                     ___lmul@product:
   577                           
   578                           ; 4 bytes @ 0x22
   579  0042                     	ds	2
   580  0044                     ??___flmul:
   581                           
   582                           ; 1 bytes @ 0x24
   583  0044                     	ds	5
   584  0049                     ?___fldiv:
   585  0049                     ___fldiv@a:	
   586                           ; 4 bytes @ 0x29
   587                           
   588                           
   589                           ; 4 bytes @ 0x29
   590  0049                     	ds	4
   591  004D                     ___fldiv@b:
   592                           
   593                           ; 4 bytes @ 0x2D
   594  004D                     	ds	4
   595                           
   596                           	psect	maintext
   597  058D                     __pmaintext:	
   598 ;;
   599 ;;Main: autosize = 0, tempsize = 3, incstack = 0, save=0
   600 ;;
   601 ;; *************** function _main *****************
   602 ;; Defined at:
   603 ;;		line 33 in file "demo2.c"
   604 ;; Parameters:    Size  Location     Type
   605 ;;		None
   606 ;; Auto vars:     Size  Location     Type
   607 ;;		None
   608 ;; Return value:  Size  Location     Type
   609 ;;                  1    wreg      void 
   610 ;; Registers used:
   611 ;;		wreg, status,2, status,0, btemp+1, pclath, cstack
   612 ;; Tracked objects:
   613 ;;		On entry : B00/0
   614 ;;		On exit  : 0/0
   615 ;;		Unchanged: 0/0
   616 ;; Data sizes:     COMMON   BANK0   BANK1   BANK3   BANK2
   617 ;;      Params:         0       0       0       0       0
   618 ;;      Locals:         0       0       0       0       0
   619 ;;      Temps:          0       0       3       0       0
   620 ;;      Totals:         0       0       3       0       0
   621 ;;Total ram usage:        3 bytes
   622 ;; Hardware stack levels required when called: 5
   623 ;; This function calls:
   624 ;;		_ADC_Init
   625 ;;		_ADC_Read
   626 ;;		___fldiv
   627 ;;		___flge
   628 ;;		___flmul
   629 ;;		___fltol
   630 ;;		___lmul
   631 ;;		___xxtofl
   632 ;; This function is called by:
   633 ;;		Startup code after reset
   634 ;; This function uses a non-reentrant model
   635 ;;
   636                           
   637                           
   638                           ;psect for function _main
   639  058D                     _main:
   640  058D                     l1930:	
   641                           ;incstack = 0
   642                           ; Regs used in _main: [wreg+status,2+status,0+btemp+1+pclath+cstack]
   643                           
   644                           
   645                           ;demo2.c: 35:     TMR0 =0;
   646  058D  1283               	bcf	3,5	;RP0=0, select bank0
   647  058E  1303               	bcf	3,6	;RP1=0, select bank0
   648  058F  0181               	clrf	1	;volatile
   649  0590                     l1932:
   650                           
   651                           ;demo2.c: 36:     OPTION_REG = 0x83;
   652  0590  3083               	movlw	131
   653  0591  1683               	bsf	3,5	;RP0=1, select bank1
   654  0592  1303               	bcf	3,6	;RP1=0, select bank1
   655  0593  0081               	movwf	1	;volatile
   656  0594                     l1934:
   657                           
   658                           ;demo2.c: 37:     INTCON=0xA0;
   659  0594  30A0               	movlw	160
   660  0595  008B               	movwf	11	;volatile
   661                           
   662                           ;demo2.c: 39:     TRISD = 0x00;
   663  0596  0188               	clrf	8	;volatile
   664                           
   665                           ;demo2.c: 40:     PORTD = 0x00;
   666  0597  1283               	bcf	3,5	;RP0=0, select bank0
   667  0598  1303               	bcf	3,6	;RP1=0, select bank0
   668  0599  0188               	clrf	8	;volatile
   669  059A                     l1936:
   670                           
   671                           ;demo2.c: 44:     TRISCbits.TRISC0 = 0;
   672  059A  1683               	bsf	3,5	;RP0=1, select bank1
   673  059B  1303               	bcf	3,6	;RP1=0, select bank1
   674  059C  1007               	bcf	7,0	;volatile
   675  059D                     l1938:
   676                           
   677                           ;demo2.c: 45:     TRISCbits.TRISC1 = 0;
   678  059D  1087               	bcf	7,1	;volatile
   679  059E                     l1940:
   680                           
   681                           ;demo2.c: 46:     TRISCbits.TRISC2 = 0;
   682  059E  1107               	bcf	7,2	;volatile
   683  059F                     l1942:
   684                           
   685                           ;demo2.c: 47:     TRISCbits.TRISC3 = 0;
   686  059F  1187               	bcf	7,3	;volatile
   687  05A0                     l1944:
   688                           
   689                           ;demo2.c: 49:     PORTCbits.RC0 = 1;
   690  05A0  1283               	bcf	3,5	;RP0=0, select bank0
   691  05A1  1303               	bcf	3,6	;RP1=0, select bank0
   692  05A2  1407               	bsf	7,0	;volatile
   693  05A3                     l1946:
   694                           
   695                           ;demo2.c: 50:     PORTCbits.RC1 =1;
   696  05A3  1487               	bsf	7,1	;volatile
   697  05A4                     l1948:
   698                           
   699                           ;demo2.c: 51:     PORTCbits.RC2 =1;
   700  05A4  1507               	bsf	7,2	;volatile
   701  05A5                     l1950:
   702                           
   703                           ;demo2.c: 52:     PORTCbits.RC3 =1;
   704  05A5  1587               	bsf	7,3	;volatile
   705  05A6                     l1952:
   706                           
   707                           ;demo2.c: 53:     ADC_Init();
   708  05A6  120A  118A  27F8  120A  118A  	fcall	_ADC_Init
   709  05AB                     l1954:
   710                           
   711                           ;demo2.c: 56:     {;demo2.c: 59:          ADC_Value =ADC_Read(0);
   712  05AB  3000               	movlw	0
   713  05AC  1283               	bcf	3,5	;RP0=0, select bank0
   714  05AD  1303               	bcf	3,6	;RP1=0, select bank0
   715  05AE  00AE               	movwf	ADC_Read@ADC_channel
   716  05AF  00AF               	movwf	ADC_Read@ADC_channel+1
   717  05B0  120A  158A  22D2  120A  118A  	fcall	_ADC_Read
   718  05B5  1283               	bcf	3,5	;RP0=0, select bank0
   719  05B6  1303               	bcf	3,6	;RP1=0, select bank0
   720  05B7  082F               	movf	?_ADC_Read+1,w
   721  05B8  00DF               	movwf	_ADC_Value+1
   722  05B9  082E               	movf	?_ADC_Read,w
   723  05BA  00DE               	movwf	_ADC_Value
   724  05BB                     l1956:
   725                           
   726                           ;demo2.c: 61:          Vin=(25*(float)ADC_Value)/1024;
   727  05BB  3044               	movlw	68
   728  05BC  00CC               	movwf	___fldiv@a+3
   729  05BD  3080               	movlw	128
   730  05BE  00CB               	movwf	___fldiv@a+2
   731  05BF  3000               	movlw	0
   732  05C0  00CA               	movwf	___fldiv@a+1
   733  05C1  3000               	movlw	0
   734  05C2  00C9               	movwf	___fldiv@a
   735  05C3  3041               	movlw	65
   736  05C4  00BF               	movwf	___flmul@b+3
   737  05C5  30C8               	movlw	200
   738  05C6  00BE               	movwf	___flmul@b+2
   739  05C7  3000               	movlw	0
   740  05C8  00BD               	movwf	___flmul@b+1
   741  05C9  3000               	movlw	0
   742  05CA  00BC               	movwf	___flmul@b
   743  05CB  085E               	movf	_ADC_Value,w
   744  05CC  00AE               	movwf	___xxtofl@val
   745  05CD  085F               	movf	_ADC_Value+1,w
   746  05CE  00AF               	movwf	___xxtofl@val+1
   747  05CF  01B0               	clrf	___xxtofl@val+2
   748  05D0  01B1               	clrf	___xxtofl@val+3
   749  05D1  3000               	movlw	0
   750  05D2  120A  118A  268E  120A  118A  	fcall	___xxtofl
   751  05D7  1283               	bcf	3,5	;RP0=0, select bank0
   752  05D8  1303               	bcf	3,6	;RP1=0, select bank0
   753  05D9  0831               	movf	?___xxtofl+3,w
   754  05DA  00C3               	movwf	___flmul@a+3
   755  05DB  0830               	movf	?___xxtofl+2,w
   756  05DC  00C2               	movwf	___flmul@a+2
   757  05DD  082F               	movf	?___xxtofl+1,w
   758  05DE  00C1               	movwf	___flmul@a+1
   759  05DF  082E               	movf	?___xxtofl,w
   760  05E0  00C0               	movwf	___flmul@a
   761  05E1  120A  118A  202E  120A  118A  	fcall	___flmul
   762  05E6  1283               	bcf	3,5	;RP0=0, select bank0
   763  05E7  1303               	bcf	3,6	;RP1=0, select bank0
   764  05E8  083F               	movf	?___flmul+3,w
   765  05E9  00D0               	movwf	___fldiv@b+3
   766  05EA  083E               	movf	?___flmul+2,w
   767  05EB  00CF               	movwf	___fldiv@b+2
   768  05EC  083D               	movf	?___flmul+1,w
   769  05ED  00CE               	movwf	___fldiv@b+1
   770  05EE  083C               	movf	?___flmul,w
   771  05EF  00CD               	movwf	___fldiv@b
   772  05F0  120A  158A  256B  120A  118A  	fcall	___fldiv
   773  05F5  1283               	bcf	3,5	;RP0=0, select bank0
   774  05F6  1303               	bcf	3,6	;RP1=0, select bank0
   775  05F7  084C               	movf	?___fldiv+3,w
   776  05F8  00DD               	movwf	_Vin+3
   777  05F9  084B               	movf	?___fldiv+2,w
   778  05FA  00DC               	movwf	_Vin+2
   779  05FB  084A               	movf	?___fldiv+1,w
   780  05FC  00DB               	movwf	_Vin+1
   781  05FD  0849               	movf	?___fldiv,w
   782  05FE  00DA               	movwf	_Vin
   783  05FF                     l1958:
   784                           
   785                           ;demo2.c: 62:          if(Vin>=10.0)
   786  05FF  085D               	movf	_Vin+3,w
   787  0600  00B1               	movwf	___flge@ff1+3
   788  0601  085C               	movf	_Vin+2,w
   789  0602  00B0               	movwf	___flge@ff1+2
   790  0603  085B               	movf	_Vin+1,w
   791  0604  00AF               	movwf	___flge@ff1+1
   792  0605  085A               	movf	_Vin,w
   793  0606  00AE               	movwf	___flge@ff1
   794  0607  3041               	movlw	65
   795  0608  00B5               	movwf	___flge@ff2+3
   796  0609  3020               	movlw	32
   797  060A  00B4               	movwf	___flge@ff2+2
   798  060B  3000               	movlw	0
   799  060C  00B3               	movwf	___flge@ff2+1
   800  060D  3000               	movlw	0
   801  060E  00B2               	movwf	___flge@ff2
   802  060F  120A  118A  274A  120A  118A  	fcall	___flge
   803  0614  1C03               	btfss	3,0
   804  0615  2E17               	goto	u2841
   805  0616  2E18               	goto	u2840
   806  0617                     u2841:
   807  0617  2E4A               	goto	l56
   808  0618                     u2840:
   809  0618                     l1960:
   810                           
   811                           ;demo2.c: 63:          {;demo2.c: 64:              check =0;
   812  0618  1283               	bcf	3,5	;RP0=0, select bank0
   813  0619  1303               	bcf	3,6	;RP1=0, select bank0
   814  061A  01D9               	clrf	_check
   815  061B                     l1962:
   816                           
   817                           ;demo2.c: 65:              Vin_convert =(uint32_t) Vin*100;
   818  061B  085D               	movf	_Vin+3,w
   819  061C  00B1               	movwf	___fltol@f1+3
   820  061D  085C               	movf	_Vin+2,w
   821  061E  00B0               	movwf	___fltol@f1+2
   822  061F  085B               	movf	_Vin+1,w
   823  0620  00AF               	movwf	___fltol@f1+1
   824  0621  085A               	movf	_Vin,w
   825  0622  00AE               	movwf	___fltol@f1
   826  0623  120A  158A  2452  120A  118A  	fcall	___fltol
   827  0628  1283               	bcf	3,5	;RP0=0, select bank0
   828  0629  1303               	bcf	3,6	;RP1=0, select bank0
   829  062A  0831               	movf	?___fltol+3,w
   830  062B  00BC               	movwf	___lmul@multiplier+3
   831  062C  0830               	movf	?___fltol+2,w
   832  062D  00BB               	movwf	___lmul@multiplier+2
   833  062E  082F               	movf	?___fltol+1,w
   834  062F  00BA               	movwf	___lmul@multiplier+1
   835  0630  082E               	movf	?___fltol,w
   836  0631  00B9               	movwf	___lmul@multiplier
   837  0632  3000               	movlw	0
   838  0633  00C0               	movwf	___lmul@multiplicand+3
   839  0634  3000               	movlw	0
   840  0635  00BF               	movwf	___lmul@multiplicand+2
   841  0636  3000               	movlw	0
   842  0637  00BE               	movwf	___lmul@multiplicand+1
   843  0638  3064               	movlw	100
   844  0639  00BD               	movwf	___lmul@multiplicand
   845  063A  120A  158A  22FE  120A  118A  	fcall	___lmul
   846  063F  1283               	bcf	3,5	;RP0=0, select bank0
   847  0640  1303               	bcf	3,6	;RP1=0, select bank0
   848  0641  083C               	movf	?___lmul+3,w
   849  0642  00D4               	movwf	_Vin_convert+3
   850  0643  083B               	movf	?___lmul+2,w
   851  0644  00D3               	movwf	_Vin_convert+2
   852  0645  083A               	movf	?___lmul+1,w
   853  0646  00D2               	movwf	_Vin_convert+1
   854  0647  0839               	movf	?___lmul,w
   855  0648  00D1               	movwf	_Vin_convert
   856                           
   857                           ;demo2.c: 66:          }
   858  0649  2E7C               	goto	l1966
   859  064A                     l56:	
   860                           ;demo2.c: 67:          else
   861                           
   862                           
   863                           ;demo2.c: 68:          {;demo2.c: 69:              check=1;
   864  064A  1283               	bcf	3,5	;RP0=0, select bank0
   865  064B  1303               	bcf	3,6	;RP1=0, select bank0
   866  064C  01D9               	clrf	_check
   867  064D  0AD9               	incf	_check,f
   868  064E                     l1964:
   869                           
   870                           ;demo2.c: 70:              Vin_convert =(uint32_t)Vin*1000;
   871  064E  085D               	movf	_Vin+3,w
   872  064F  00B1               	movwf	___fltol@f1+3
   873  0650  085C               	movf	_Vin+2,w
   874  0651  00B0               	movwf	___fltol@f1+2
   875  0652  085B               	movf	_Vin+1,w
   876  0653  00AF               	movwf	___fltol@f1+1
   877  0654  085A               	movf	_Vin,w
   878  0655  00AE               	movwf	___fltol@f1
   879  0656  120A  158A  2452  120A  118A  	fcall	___fltol
   880  065B  1283               	bcf	3,5	;RP0=0, select bank0
   881  065C  1303               	bcf	3,6	;RP1=0, select bank0
   882  065D  0831               	movf	?___fltol+3,w
   883  065E  00BC               	movwf	___lmul@multiplier+3
   884  065F  0830               	movf	?___fltol+2,w
   885  0660  00BB               	movwf	___lmul@multiplier+2
   886  0661  082F               	movf	?___fltol+1,w
   887  0662  00BA               	movwf	___lmul@multiplier+1
   888  0663  082E               	movf	?___fltol,w
   889  0664  00B9               	movwf	___lmul@multiplier
   890  0665  3000               	movlw	0
   891  0666  00C0               	movwf	___lmul@multiplicand+3
   892  0667  3000               	movlw	0
   893  0668  00BF               	movwf	___lmul@multiplicand+2
   894  0669  3003               	movlw	3
   895  066A  00BE               	movwf	___lmul@multiplicand+1
   896  066B  30E8               	movlw	232
   897  066C  00BD               	movwf	___lmul@multiplicand
   898  066D  120A  158A  22FE  120A  118A  	fcall	___lmul
   899  0672  1283               	bcf	3,5	;RP0=0, select bank0
   900  0673  1303               	bcf	3,6	;RP1=0, select bank0
   901  0674  083C               	movf	?___lmul+3,w
   902  0675  00D4               	movwf	_Vin_convert+3
   903  0676  083B               	movf	?___lmul+2,w
   904  0677  00D3               	movwf	_Vin_convert+2
   905  0678  083A               	movf	?___lmul+1,w
   906  0679  00D2               	movwf	_Vin_convert+1
   907  067A  0839               	movf	?___lmul,w
   908  067B  00D1               	movwf	_Vin_convert
   909  067C                     l1966:
   910                           
   911                           ;demo2.c: 74:            _delay((unsigned long)((100)*(20000000/4000.0)));
   912  067C  3003               	movlw	3
   913  067D  1683               	bsf	3,5	;RP0=1, select bank1
   914  067E  1303               	bcf	3,6	;RP1=0, select bank1
   915  067F  00C1               	movwf	(??_main^(0+128)+2)
   916  0680  308A               	movlw	138
   917  0681  00C0               	movwf	(??_main^(0+128)+1)
   918  0682  3055               	movlw	85
   919  0683  00BF               	movwf	??_main^(0+128)
   920  0684                     u2857:
   921  0684  0BBF               	decfsz	??_main^(0+128),f
   922  0685  2E84               	goto	u2857
   923  0686  0BC0               	decfsz	(??_main^(0+128)+1),f
   924  0687  2E84               	goto	u2857
   925  0688  0BC1               	decfsz	(??_main^(0+128)+2),f
   926  0689  2E84               	goto	u2857
   927  068A  2DAB               	goto	l1954
   928  068B  120A  118A  2810   	ljmp	start
   929  068E                     __end_of_main:
   930                           
   931                           	psect	text1
   932  068E                     __ptext1:	
   933 ;; *************** function ___xxtofl *****************
   934 ;; Defined at:
   935 ;;		line 10 in file "C:\Program Files\Microchip\xc8\v2.32\pic\sources\c90\common\xxtofl.c"
   936 ;; Parameters:    Size  Location     Type
   937 ;;  sign            1    wreg     unsigned char 
   938 ;;  val             4   14[BANK0 ] long 
   939 ;; Auto vars:     Size  Location     Type
   940 ;;  sign            1   22[BANK0 ] unsigned char 
   941 ;;  arg             4   24[BANK0 ] unsigned long 
   942 ;;  exp             1   23[BANK0 ] unsigned char 
   943 ;; Return value:  Size  Location     Type
   944 ;;                  4   14[BANK0 ] unsigned char 
   945 ;; Registers used:
   946 ;;		wreg, status,2, status,0
   947 ;; Tracked objects:
   948 ;;		On entry : 0/0
   949 ;;		On exit  : 0/0
   950 ;;		Unchanged: 0/0
   951 ;; Data sizes:     COMMON   BANK0   BANK1   BANK3   BANK2
   952 ;;      Params:         0       4       0       0       0
   953 ;;      Locals:         0       6       0       0       0
   954 ;;      Temps:          0       4       0       0       0
   955 ;;      Totals:         0      14       0       0       0
   956 ;;Total ram usage:       14 bytes
   957 ;; Hardware stack levels used: 1
   958 ;; Hardware stack levels required when called: 3
   959 ;; This function calls:
   960 ;;		Nothing
   961 ;; This function is called by:
   962 ;;		_main
   963 ;; This function uses a non-reentrant model
   964 ;;
   965                           
   966                           
   967                           ;psect for function ___xxtofl
   968  068E                     ___xxtofl:
   969                           
   970                           ;incstack = 0
   971                           ; Regs used in ___xxtofl: [wreg+status,2+status,0]
   972                           ;___xxtofl@sign stored from wreg
   973  068E  1283               	bcf	3,5	;RP0=0, select bank0
   974  068F  1303               	bcf	3,6	;RP1=0, select bank0
   975  0690  00B6               	movwf	___xxtofl@sign
   976  0691                     l1688:
   977  0691  0836               	movf	___xxtofl@sign,w
   978  0692  1903               	btfsc	3,2
   979  0693  2E95               	goto	u2291
   980  0694  2E96               	goto	u2290
   981  0695                     u2291:
   982  0695  2EAA               	goto	l1694
   983  0696                     u2290:
   984  0696                     l1690:
   985  0696  1FB1               	btfss	___xxtofl@val+3,7
   986  0697  2E99               	goto	u2301
   987  0698  2E9A               	goto	u2300
   988  0699                     u2301:
   989  0699  2EAA               	goto	l1694
   990  069A                     u2300:
   991  069A                     l1692:
   992  069A  092E               	comf	___xxtofl@val,w
   993  069B  00B8               	movwf	___xxtofl@arg
   994  069C  092F               	comf	___xxtofl@val+1,w
   995  069D  00B9               	movwf	___xxtofl@arg+1
   996  069E  0930               	comf	___xxtofl@val+2,w
   997  069F  00BA               	movwf	___xxtofl@arg+2
   998  06A0  0931               	comf	___xxtofl@val+3,w
   999  06A1  00BB               	movwf	___xxtofl@arg+3
  1000  06A2  0AB8               	incf	___xxtofl@arg,f
  1001  06A3  1903               	skipnz
  1002  06A4  0AB9               	incf	___xxtofl@arg+1,f
  1003  06A5  1903               	skipnz
  1004  06A6  0ABA               	incf	___xxtofl@arg+2,f
  1005  06A7  1903               	skipnz
  1006  06A8  0ABB               	incf	___xxtofl@arg+3,f
  1007  06A9  2EB2               	goto	l599
  1008  06AA                     l1694:
  1009  06AA  0831               	movf	___xxtofl@val+3,w
  1010  06AB  00BB               	movwf	___xxtofl@arg+3
  1011  06AC  0830               	movf	___xxtofl@val+2,w
  1012  06AD  00BA               	movwf	___xxtofl@arg+2
  1013  06AE  082F               	movf	___xxtofl@val+1,w
  1014  06AF  00B9               	movwf	___xxtofl@arg+1
  1015  06B0  082E               	movf	___xxtofl@val,w
  1016  06B1  00B8               	movwf	___xxtofl@arg
  1017  06B2                     l599:
  1018  06B2  0831               	movf	___xxtofl@val+3,w
  1019  06B3  0430               	iorwf	___xxtofl@val+2,w
  1020  06B4  042F               	iorwf	___xxtofl@val+1,w
  1021  06B5  042E               	iorwf	___xxtofl@val,w
  1022  06B6  1D03               	skipz
  1023  06B7  2EB9               	goto	u2311
  1024  06B8  2EBA               	goto	u2310
  1025  06B9                     u2311:
  1026  06B9  2EC3               	goto	l1700
  1027  06BA                     u2310:
  1028  06BA                     l1696:
  1029  06BA  3000               	movlw	0
  1030  06BB  00B1               	movwf	?___xxtofl+3
  1031  06BC  3000               	movlw	0
  1032  06BD  00B0               	movwf	?___xxtofl+2
  1033  06BE  3000               	movlw	0
  1034  06BF  00AF               	movwf	?___xxtofl+1
  1035  06C0  3000               	movlw	0
  1036  06C1  00AE               	movwf	?___xxtofl
  1037  06C2  2F49               	goto	l601
  1038  06C3                     l1700:
  1039  06C3  3096               	movlw	150
  1040  06C4  00B2               	movwf	??___xxtofl
  1041  06C5  0832               	movf	??___xxtofl,w
  1042  06C6  00B7               	movwf	___xxtofl@exp
  1043  06C7  2ED5               	goto	l1704
  1044  06C8                     l1702:
  1045  06C8  3001               	movlw	1
  1046  06C9  00B2               	movwf	??___xxtofl
  1047  06CA  0832               	movf	??___xxtofl,w
  1048  06CB  07B7               	addwf	___xxtofl@exp,f
  1049  06CC  3001               	movlw	1
  1050  06CD                     u2325:
  1051  06CD  1003               	clrc
  1052  06CE  0CBB               	rrf	___xxtofl@arg+3,f
  1053  06CF  0CBA               	rrf	___xxtofl@arg+2,f
  1054  06D0  0CB9               	rrf	___xxtofl@arg+1,f
  1055  06D1  0CB8               	rrf	___xxtofl@arg,f
  1056  06D2  3EFF               	addlw	-1
  1057  06D3  1D03               	skipz
  1058  06D4  2ECD               	goto	u2325
  1059  06D5                     l1704:
  1060  06D5  30FE               	movlw	254
  1061  06D6  053B               	andwf	___xxtofl@arg+3,w
  1062  06D7  1D03               	btfss	3,2
  1063  06D8  2EDA               	goto	u2331
  1064  06D9  2EDB               	goto	u2330
  1065  06DA                     u2331:
  1066  06DA  2EC8               	goto	l1702
  1067  06DB                     u2330:
  1068  06DB  2EF7               	goto	l605
  1069  06DC                     l1706:
  1070  06DC  3001               	movlw	1
  1071  06DD  00B2               	movwf	??___xxtofl
  1072  06DE  0832               	movf	??___xxtofl,w
  1073  06DF  07B7               	addwf	___xxtofl@exp,f
  1074  06E0                     l1708:
  1075  06E0  3001               	movlw	1
  1076  06E1  07B8               	addwf	___xxtofl@arg,f
  1077  06E2  3000               	movlw	0
  1078  06E3  1803               	skipnc
  1079  06E4  3001               	movlw	1
  1080  06E5  07B9               	addwf	___xxtofl@arg+1,f
  1081  06E6  3000               	movlw	0
  1082  06E7  1803               	skipnc
  1083  06E8  3001               	movlw	1
  1084  06E9  07BA               	addwf	___xxtofl@arg+2,f
  1085  06EA  3000               	movlw	0
  1086  06EB  1803               	skipnc
  1087  06EC  3001               	movlw	1
  1088  06ED  07BB               	addwf	___xxtofl@arg+3,f
  1089  06EE                     l1710:
  1090  06EE  3001               	movlw	1
  1091  06EF                     u2345:
  1092  06EF  1003               	clrc
  1093  06F0  0CBB               	rrf	___xxtofl@arg+3,f
  1094  06F1  0CBA               	rrf	___xxtofl@arg+2,f
  1095  06F2  0CB9               	rrf	___xxtofl@arg+1,f
  1096  06F3  0CB8               	rrf	___xxtofl@arg,f
  1097  06F4  3EFF               	addlw	-1
  1098  06F5  1D03               	skipz
  1099  06F6  2EEF               	goto	u2345
  1100  06F7                     l605:
  1101  06F7  30FF               	movlw	255
  1102  06F8  053B               	andwf	___xxtofl@arg+3,w
  1103  06F9  1D03               	btfss	3,2
  1104  06FA  2EFC               	goto	u2351
  1105  06FB  2EFD               	goto	u2350
  1106  06FC                     u2351:
  1107  06FC  2EDC               	goto	l1706
  1108  06FD                     u2350:
  1109  06FD  2F09               	goto	l1714
  1110  06FE                     l1712:
  1111  06FE  3001               	movlw	1
  1112  06FF  02B7               	subwf	___xxtofl@exp,f
  1113  0700  3001               	movlw	1
  1114  0701  00B2               	movwf	??___xxtofl
  1115  0702                     u2365:
  1116  0702  1003               	clrc
  1117  0703  0DB8               	rlf	___xxtofl@arg,f
  1118  0704  0DB9               	rlf	___xxtofl@arg+1,f
  1119  0705  0DBA               	rlf	___xxtofl@arg+2,f
  1120  0706  0DBB               	rlf	___xxtofl@arg+3,f
  1121  0707  0BB2               	decfsz	??___xxtofl,f
  1122  0708  2F02               	goto	u2365
  1123  0709                     l1714:
  1124  0709  1BBA               	btfsc	___xxtofl@arg+2,7
  1125  070A  2F0C               	goto	u2371
  1126  070B  2F0D               	goto	u2370
  1127  070C                     u2371:
  1128  070C  2F13               	goto	l612
  1129  070D                     u2370:
  1130  070D                     l1716:
  1131  070D  3002               	movlw	2
  1132  070E  0237               	subwf	___xxtofl@exp,w
  1133  070F  1803               	skipnc
  1134  0710  2F12               	goto	u2381
  1135  0711  2F13               	goto	u2380
  1136  0712                     u2381:
  1137  0712  2EFE               	goto	l1712
  1138  0713                     u2380:
  1139  0713                     l612:
  1140  0713  1837               	btfsc	___xxtofl@exp,0
  1141  0714  2F16               	goto	u2391
  1142  0715  2F17               	goto	u2390
  1143  0716                     u2391:
  1144  0716  2F1F               	goto	l613
  1145  0717                     u2390:
  1146  0717                     l1718:
  1147  0717  30FF               	movlw	255
  1148  0718  05B8               	andwf	___xxtofl@arg,f
  1149  0719  30FF               	movlw	255
  1150  071A  05B9               	andwf	___xxtofl@arg+1,f
  1151  071B  307F               	movlw	127
  1152  071C  05BA               	andwf	___xxtofl@arg+2,f
  1153  071D  30FF               	movlw	255
  1154  071E  05BB               	andwf	___xxtofl@arg+3,f
  1155  071F                     l613:
  1156  071F  1003               	clrc
  1157  0720  0CB7               	rrf	___xxtofl@exp,f
  1158  0721                     l1720:
  1159  0721  0837               	movf	___xxtofl@exp,w
  1160  0722  00B2               	movwf	??___xxtofl
  1161  0723  01B3               	clrf	??___xxtofl+1
  1162  0724  01B4               	clrf	??___xxtofl+2
  1163  0725  01B5               	clrf	??___xxtofl+3
  1164  0726  3018               	movlw	24
  1165  0727                     u2405:
  1166  0727  1003               	clrc
  1167  0728  0DB2               	rlf	??___xxtofl,f
  1168  0729  0DB3               	rlf	??___xxtofl+1,f
  1169  072A  0DB4               	rlf	??___xxtofl+2,f
  1170  072B  0DB5               	rlf	??___xxtofl+3,f
  1171  072C                     u2400:
  1172  072C  3EFF               	addlw	-1
  1173  072D  1D03               	skipz
  1174  072E  2F27               	goto	u2405
  1175  072F  0832               	movf	??___xxtofl,w
  1176  0730  04B8               	iorwf	___xxtofl@arg,f
  1177  0731  0833               	movf	??___xxtofl+1,w
  1178  0732  04B9               	iorwf	___xxtofl@arg+1,f
  1179  0733  0834               	movf	??___xxtofl+2,w
  1180  0734  04BA               	iorwf	___xxtofl@arg+2,f
  1181  0735  0835               	movf	??___xxtofl+3,w
  1182  0736  04BB               	iorwf	___xxtofl@arg+3,f
  1183  0737                     l1722:
  1184  0737  0836               	movf	___xxtofl@sign,w
  1185  0738  1903               	btfsc	3,2
  1186  0739  2F3B               	goto	u2411
  1187  073A  2F3C               	goto	u2410
  1188  073B                     u2411:
  1189  073B  2F41               	goto	l1728
  1190  073C                     u2410:
  1191  073C                     l1724:
  1192  073C  1FB1               	btfss	___xxtofl@val+3,7
  1193  073D  2F3F               	goto	u2421
  1194  073E  2F40               	goto	u2420
  1195  073F                     u2421:
  1196  073F  2F41               	goto	l1728
  1197  0740                     u2420:
  1198  0740                     l1726:
  1199  0740  17BB               	bsf	___xxtofl@arg+3,7
  1200  0741                     l1728:
  1201  0741  083B               	movf	___xxtofl@arg+3,w
  1202  0742  00B1               	movwf	?___xxtofl+3
  1203  0743  083A               	movf	___xxtofl@arg+2,w
  1204  0744  00B0               	movwf	?___xxtofl+2
  1205  0745  0839               	movf	___xxtofl@arg+1,w
  1206  0746  00AF               	movwf	?___xxtofl+1
  1207  0747  0838               	movf	___xxtofl@arg,w
  1208  0748  00AE               	movwf	?___xxtofl
  1209  0749                     l601:
  1210  0749  0008               	return
  1211  074A                     __end_of___xxtofl:
  1212                           
  1213                           	psect	text2
  1214  0AFE                     __ptext2:	
  1215 ;; *************** function ___lmul *****************
  1216 ;; Defined at:
  1217 ;;		line 15 in file "C:\Program Files\Microchip\xc8\v2.32\pic\sources\c90\common\Umul32.c"
  1218 ;; Parameters:    Size  Location     Type
  1219 ;;  multiplier      4   25[BANK0 ] unsigned long 
  1220 ;;  multiplicand    4   29[BANK0 ] unsigned long 
  1221 ;; Auto vars:     Size  Location     Type
  1222 ;;  product         4   34[BANK0 ] unsigned long 
  1223 ;; Return value:  Size  Location     Type
  1224 ;;                  4   25[BANK0 ] unsigned long 
  1225 ;; Registers used:
  1226 ;;		wreg, status,2, status,0
  1227 ;; Tracked objects:
  1228 ;;		On entry : 0/0
  1229 ;;		On exit  : 0/0
  1230 ;;		Unchanged: 0/0
  1231 ;; Data sizes:     COMMON   BANK0   BANK1   BANK3   BANK2
  1232 ;;      Params:         0       8       0       0       0
  1233 ;;      Locals:         0       4       0       0       0
  1234 ;;      Temps:          0       1       0       0       0
  1235 ;;      Totals:         0      13       0       0       0
  1236 ;;Total ram usage:       13 bytes
  1237 ;; Hardware stack levels used: 1
  1238 ;; Hardware stack levels required when called: 3
  1239 ;; This function calls:
  1240 ;;		Nothing
  1241 ;; This function is called by:
  1242 ;;		_main
  1243 ;; This function uses a non-reentrant model
  1244 ;;
  1245                           
  1246                           
  1247                           ;psect for function ___lmul
  1248  0AFE                     ___lmul:
  1249  0AFE                     l1336:	
  1250                           ;incstack = 0
  1251                           ; Regs used in ___lmul: [wreg+status,2+status,0]
  1252                           
  1253  0AFE  3000               	movlw	0
  1254  0AFF  1283               	bcf	3,5	;RP0=0, select bank0
  1255  0B00  1303               	bcf	3,6	;RP1=0, select bank0
  1256  0B01  00C5               	movwf	___lmul@product+3
  1257  0B02  3000               	movlw	0
  1258  0B03  00C4               	movwf	___lmul@product+2
  1259  0B04  3000               	movlw	0
  1260  0B05  00C3               	movwf	___lmul@product+1
  1261  0B06  3000               	movlw	0
  1262  0B07  00C2               	movwf	___lmul@product
  1263  0B08                     l1338:
  1264  0B08  1C39               	btfss	___lmul@multiplier,0
  1265  0B09  2B0B               	goto	u1401
  1266  0B0A  2B0C               	goto	u1400
  1267  0B0B                     u1401:
  1268  0B0B  2B23               	goto	l1342
  1269  0B0C                     u1400:
  1270  0B0C                     l1340:
  1271  0B0C  083D               	movf	___lmul@multiplicand,w
  1272  0B0D  07C2               	addwf	___lmul@product,f
  1273  0B0E  083E               	movf	___lmul@multiplicand+1,w
  1274  0B0F  1103               	clrz
  1275  0B10  1803               	skipnc
  1276  0B11  3E01               	addlw	1
  1277  0B12  1903               	skipnz
  1278  0B13  2B15               	goto	u1411
  1279  0B14  07C3               	addwf	___lmul@product+1,f
  1280  0B15                     u1411:
  1281  0B15  083F               	movf	___lmul@multiplicand+2,w
  1282  0B16  1103               	clrz
  1283  0B17  1803               	skipnc
  1284  0B18  3E01               	addlw	1
  1285  0B19  1903               	skipnz
  1286  0B1A  2B1C               	goto	u1412
  1287  0B1B  07C4               	addwf	___lmul@product+2,f
  1288  0B1C                     u1412:
  1289  0B1C  0840               	movf	___lmul@multiplicand+3,w
  1290  0B1D  1103               	clrz
  1291  0B1E  1803               	skipnc
  1292  0B1F  3E01               	addlw	1
  1293  0B20  1903               	skipnz
  1294  0B21  2B23               	goto	u1413
  1295  0B22  07C5               	addwf	___lmul@product+3,f
  1296  0B23                     u1413:
  1297  0B23                     l1342:
  1298  0B23  3001               	movlw	1
  1299  0B24  00C1               	movwf	??___lmul
  1300  0B25                     u1425:
  1301  0B25  1003               	clrc
  1302  0B26  0DBD               	rlf	___lmul@multiplicand,f
  1303  0B27  0DBE               	rlf	___lmul@multiplicand+1,f
  1304  0B28  0DBF               	rlf	___lmul@multiplicand+2,f
  1305  0B29  0DC0               	rlf	___lmul@multiplicand+3,f
  1306  0B2A  0BC1               	decfsz	??___lmul,f
  1307  0B2B  2B25               	goto	u1425
  1308  0B2C                     l1344:
  1309  0B2C  3001               	movlw	1
  1310  0B2D                     u1435:
  1311  0B2D  1003               	clrc
  1312  0B2E  0CBC               	rrf	___lmul@multiplier+3,f
  1313  0B2F  0CBB               	rrf	___lmul@multiplier+2,f
  1314  0B30  0CBA               	rrf	___lmul@multiplier+1,f
  1315  0B31  0CB9               	rrf	___lmul@multiplier,f
  1316  0B32  3EFF               	addlw	-1
  1317  0B33  1D03               	skipz
  1318  0B34  2B2D               	goto	u1435
  1319  0B35  083C               	movf	___lmul@multiplier+3,w
  1320  0B36  043B               	iorwf	___lmul@multiplier+2,w
  1321  0B37  043A               	iorwf	___lmul@multiplier+1,w
  1322  0B38  0439               	iorwf	___lmul@multiplier,w
  1323  0B39  1D03               	skipz
  1324  0B3A  2B3C               	goto	u1441
  1325  0B3B  2B3D               	goto	u1440
  1326  0B3C                     u1441:
  1327  0B3C  2B08               	goto	l1338
  1328  0B3D                     u1440:
  1329  0B3D                     l1346:
  1330  0B3D  0845               	movf	___lmul@product+3,w
  1331  0B3E  00BC               	movwf	?___lmul+3
  1332  0B3F  0844               	movf	___lmul@product+2,w
  1333  0B40  00BB               	movwf	?___lmul+2
  1334  0B41  0843               	movf	___lmul@product+1,w
  1335  0B42  00BA               	movwf	?___lmul+1
  1336  0B43  0842               	movf	___lmul@product,w
  1337  0B44  00B9               	movwf	?___lmul
  1338  0B45                     l180:
  1339  0B45  0008               	return
  1340  0B46                     __end_of___lmul:
  1341                           
  1342                           	psect	text3
  1343  0C52                     __ptext3:	
  1344 ;; *************** function ___fltol *****************
  1345 ;; Defined at:
  1346 ;;		line 43 in file "C:\Program Files\Microchip\xc8\v2.32\pic\sources\c90\common\fltol.c"
  1347 ;; Parameters:    Size  Location     Type
  1348 ;;  f1              4   14[BANK0 ] unsigned long 
  1349 ;; Auto vars:     Size  Location     Type
  1350 ;;  exp1            1   24[BANK0 ] unsigned char 
  1351 ;;  sign1           1   23[BANK0 ] unsigned char 
  1352 ;; Return value:  Size  Location     Type
  1353 ;;                  4   14[BANK0 ] long 
  1354 ;; Registers used:
  1355 ;;		wreg, status,2, status,0
  1356 ;; Tracked objects:
  1357 ;;		On entry : 0/0
  1358 ;;		On exit  : 0/0
  1359 ;;		Unchanged: 0/0
  1360 ;; Data sizes:     COMMON   BANK0   BANK1   BANK3   BANK2
  1361 ;;      Params:         0       4       0       0       0
  1362 ;;      Locals:         0       2       0       0       0
  1363 ;;      Temps:          0       5       0       0       0
  1364 ;;      Totals:         0      11       0       0       0
  1365 ;;Total ram usage:       11 bytes
  1366 ;; Hardware stack levels used: 1
  1367 ;; Hardware stack levels required when called: 3
  1368 ;; This function calls:
  1369 ;;		Nothing
  1370 ;; This function is called by:
  1371 ;;		_main
  1372 ;; This function uses a non-reentrant model
  1373 ;;
  1374                           
  1375                           
  1376                           ;psect for function ___fltol
  1377  0C52                     ___fltol:
  1378  0C52                     l1370:	
  1379                           ;incstack = 0
  1380                           ; Regs used in ___fltol: [wreg+status,2+status,0]
  1381                           
  1382  0C52  1003               	clrc
  1383  0C53  1283               	bcf	3,5	;RP0=0, select bank0
  1384  0C54  1303               	bcf	3,6	;RP1=0, select bank0
  1385  0C55  0D30               	rlf	___fltol@f1+2,w
  1386  0C56  0D31               	rlf	___fltol@f1+3,w
  1387  0C57  00B2               	movwf	??___fltol
  1388  0C58  0832               	movf	??___fltol,w
  1389  0C59  00B8               	movwf	___fltol@exp1
  1390  0C5A  0838               	movf	___fltol@exp1,w
  1391  0C5B  1D03               	btfss	3,2
  1392  0C5C  2C5E               	goto	u1521
  1393  0C5D  2C5F               	goto	u1520
  1394  0C5E                     u1521:
  1395  0C5E  2C68               	goto	l1376
  1396  0C5F                     u1520:
  1397  0C5F                     l1372:
  1398  0C5F  3000               	movlw	0
  1399  0C60  00B1               	movwf	?___fltol+3
  1400  0C61  3000               	movlw	0
  1401  0C62  00B0               	movwf	?___fltol+2
  1402  0C63  3000               	movlw	0
  1403  0C64  00AF               	movwf	?___fltol+1
  1404  0C65  3000               	movlw	0
  1405  0C66  00AE               	movwf	?___fltol
  1406  0C67  2CCD               	goto	l352
  1407  0C68                     l1376:
  1408  0C68  082E               	movf	___fltol@f1,w
  1409  0C69  00B2               	movwf	??___fltol
  1410  0C6A  082F               	movf	___fltol@f1+1,w
  1411  0C6B  00B3               	movwf	??___fltol+1
  1412  0C6C  0830               	movf	___fltol@f1+2,w
  1413  0C6D  00B4               	movwf	??___fltol+2
  1414  0C6E  0831               	movf	___fltol@f1+3,w
  1415  0C6F  00B5               	movwf	??___fltol+3
  1416  0C70  301F               	movlw	31
  1417  0C71                     u1535:
  1418  0C71  1003               	clrc
  1419  0C72  0CB5               	rrf	??___fltol+3,f
  1420  0C73  0CB4               	rrf	??___fltol+2,f
  1421  0C74  0CB3               	rrf	??___fltol+1,f
  1422  0C75  0CB2               	rrf	??___fltol,f
  1423  0C76                     u1530:
  1424  0C76  3EFF               	addlw	-1
  1425  0C77  1D03               	skipz
  1426  0C78  2C71               	goto	u1535
  1427  0C79  0832               	movf	??___fltol,w
  1428  0C7A  00B6               	movwf	??___fltol+4
  1429  0C7B  0836               	movf	??___fltol+4,w
  1430  0C7C  00B7               	movwf	___fltol@sign1
  1431  0C7D                     l1378:
  1432  0C7D  17B0               	bsf	___fltol@f1+2,7
  1433  0C7E                     l1380:
  1434  0C7E  30FF               	movlw	255
  1435  0C7F  05AE               	andwf	___fltol@f1,f
  1436  0C80  30FF               	movlw	255
  1437  0C81  05AF               	andwf	___fltol@f1+1,f
  1438  0C82  30FF               	movlw	255
  1439  0C83  05B0               	andwf	___fltol@f1+2,f
  1440  0C84  3000               	movlw	0
  1441  0C85  05B1               	andwf	___fltol@f1+3,f
  1442  0C86                     l1382:
  1443  0C86  3096               	movlw	150
  1444  0C87  02B8               	subwf	___fltol@exp1,f
  1445  0C88                     l1384:
  1446  0C88  1FB8               	btfss	___fltol@exp1,7
  1447  0C89  2C8B               	goto	u1541
  1448  0C8A  2C8C               	goto	u1540
  1449  0C8B                     u1541:
  1450  0C8B  2CA6               	goto	l1394
  1451  0C8C                     u1540:
  1452  0C8C                     l1386:
  1453  0C8C  0838               	movf	___fltol@exp1,w
  1454  0C8D  3A80               	xorlw	128
  1455  0C8E  3E97               	addlw	151
  1456  0C8F  1803               	skipnc
  1457  0C90  2C92               	goto	u1551
  1458  0C91  2C93               	goto	u1550
  1459  0C92                     u1551:
  1460  0C92  2C94               	goto	l1392
  1461  0C93                     u1550:
  1462  0C93  2C5F               	goto	l1372
  1463  0C94                     l1392:
  1464  0C94  3001               	movlw	1
  1465  0C95                     u1565:
  1466  0C95  1003               	clrc
  1467  0C96  0CB1               	rrf	___fltol@f1+3,f
  1468  0C97  0CB0               	rrf	___fltol@f1+2,f
  1469  0C98  0CAF               	rrf	___fltol@f1+1,f
  1470  0C99  0CAE               	rrf	___fltol@f1,f
  1471  0C9A  3EFF               	addlw	-1
  1472  0C9B  1D03               	skipz
  1473  0C9C  2C95               	goto	u1565
  1474  0C9D  3001               	movlw	1
  1475  0C9E  00B2               	movwf	??___fltol
  1476  0C9F  0832               	movf	??___fltol,w
  1477  0CA0  07B8               	addwf	___fltol@exp1,f
  1478  0CA1  1D03               	btfss	3,2
  1479  0CA2  2CA4               	goto	u1571
  1480  0CA3  2CA5               	goto	u1570
  1481  0CA4                     u1571:
  1482  0CA4  2C94               	goto	l1392
  1483  0CA5                     u1570:
  1484  0CA5  2CBD               	goto	l1402
  1485  0CA6                     l1394:
  1486  0CA6  3020               	movlw	32
  1487  0CA7  0238               	subwf	___fltol@exp1,w
  1488  0CA8  1C03               	skipc
  1489  0CA9  2CAB               	goto	u1581
  1490  0CAA  2CAC               	goto	u1580
  1491  0CAB                     u1581:
  1492  0CAB  2CB8               	goto	l359
  1493  0CAC                     u1580:
  1494  0CAC  2C5F               	goto	l1372
  1495  0CAD                     l1400:
  1496  0CAD  3001               	movlw	1
  1497  0CAE  00B2               	movwf	??___fltol
  1498  0CAF                     u1595:
  1499  0CAF  1003               	clrc
  1500  0CB0  0DAE               	rlf	___fltol@f1,f
  1501  0CB1  0DAF               	rlf	___fltol@f1+1,f
  1502  0CB2  0DB0               	rlf	___fltol@f1+2,f
  1503  0CB3  0DB1               	rlf	___fltol@f1+3,f
  1504  0CB4  0BB2               	decfsz	??___fltol,f
  1505  0CB5  2CAF               	goto	u1595
  1506  0CB6  3001               	movlw	1
  1507  0CB7  02B8               	subwf	___fltol@exp1,f
  1508  0CB8                     l359:
  1509  0CB8  0838               	movf	___fltol@exp1,w
  1510  0CB9  1D03               	btfss	3,2
  1511  0CBA  2CBC               	goto	u1601
  1512  0CBB  2CBD               	goto	u1600
  1513  0CBC                     u1601:
  1514  0CBC  2CAD               	goto	l1400
  1515  0CBD                     u1600:
  1516  0CBD                     l1402:
  1517  0CBD  0837               	movf	___fltol@sign1,w
  1518  0CBE  1903               	btfsc	3,2
  1519  0CBF  2CC1               	goto	u1611
  1520  0CC0  2CC2               	goto	u1610
  1521  0CC1                     u1611:
  1522  0CC1  2CCD               	goto	l362
  1523  0CC2                     u1610:
  1524  0CC2                     l1404:
  1525  0CC2  09AE               	comf	___fltol@f1,f
  1526  0CC3  09AF               	comf	___fltol@f1+1,f
  1527  0CC4  09B0               	comf	___fltol@f1+2,f
  1528  0CC5  09B1               	comf	___fltol@f1+3,f
  1529  0CC6  0AAE               	incf	___fltol@f1,f
  1530  0CC7  1903               	skipnz
  1531  0CC8  0AAF               	incf	___fltol@f1+1,f
  1532  0CC9  1903               	skipnz
  1533  0CCA  0AB0               	incf	___fltol@f1+2,f
  1534  0CCB  1903               	skipnz
  1535  0CCC  0AB1               	incf	___fltol@f1+3,f
  1536  0CCD                     l362:
  1537  0CCD                     l352:
  1538  0CCD  0008               	return
  1539  0CCE                     __end_of___fltol:
  1540                           
  1541                           	psect	text4
  1542  002E                     __ptext4:	
  1543 ;; *************** function ___flmul *****************
  1544 ;; Defined at:
  1545 ;;		line 8 in file "C:\Program Files\Microchip\xc8\v2.32\pic\sources\c90\common\sprcmul.c"
  1546 ;; Parameters:    Size  Location     Type
  1547 ;;  b               4   28[BANK0 ] long 
  1548 ;;  a               4   32[BANK0 ] long 
  1549 ;; Auto vars:     Size  Location     Type
  1550 ;;  prod            4    7[BANK1 ] struct .
  1551 ;;  grs             4    2[BANK1 ] unsigned long 
  1552 ;;  temp            2   11[BANK1 ] struct .
  1553 ;;  bexp            1    6[BANK1 ] unsigned char 
  1554 ;;  aexp            1    1[BANK1 ] unsigned char 
  1555 ;;  sign            1    0[BANK1 ] unsigned char 
  1556 ;; Return value:  Size  Location     Type
  1557 ;;                  4   28[BANK0 ] unsigned char 
  1558 ;; Registers used:
  1559 ;;		wreg, status,2, status,0, btemp+1, pclath, cstack
  1560 ;; Tracked objects:
  1561 ;;		On entry : 0/0
  1562 ;;		On exit  : 0/0
  1563 ;;		Unchanged: 0/0
  1564 ;; Data sizes:     COMMON   BANK0   BANK1   BANK3   BANK2
  1565 ;;      Params:         0       8       0       0       0
  1566 ;;      Locals:         0       0      13       0       0
  1567 ;;      Temps:          0       5       0       0       0
  1568 ;;      Totals:         0      13      13       0       0
  1569 ;;Total ram usage:       26 bytes
  1570 ;; Hardware stack levels used: 1
  1571 ;; Hardware stack levels required when called: 4
  1572 ;; This function calls:
  1573 ;;		__Umul8_16
  1574 ;; This function is called by:
  1575 ;;		_main
  1576 ;; This function uses a non-reentrant model
  1577 ;;
  1578                           
  1579                           
  1580                           ;psect for function ___flmul
  1581  002E                     ___flmul:
  1582  002E                     l1790:	
  1583                           ;incstack = 0
  1584                           ; Regs used in ___flmul: [wreg+status,2+status,0+btemp+1+pclath+cstack]
  1585                           
  1586  002E  1283               	bcf	3,5	;RP0=0, select bank0
  1587  002F  1303               	bcf	3,6	;RP1=0, select bank0
  1588  0030  083F               	movf	___flmul@b+3,w
  1589  0031  3980               	andlw	128
  1590  0032  00C4               	movwf	??___flmul
  1591  0033  0844               	movf	??___flmul,w
  1592  0034  1683               	bsf	3,5	;RP0=1, select bank1
  1593  0035  1303               	bcf	3,6	;RP1=0, select bank1
  1594  0036  00A0               	movwf	___flmul@sign^(0+128)
  1595  0037                     l1792:
  1596  0037  1283               	bcf	3,5	;RP0=0, select bank0
  1597  0038  1303               	bcf	3,6	;RP1=0, select bank0
  1598  0039  083F               	movf	___flmul@b+3,w
  1599  003A  00C4               	movwf	??___flmul
  1600  003B  0744               	addwf	??___flmul,w
  1601  003C  00C5               	movwf	??___flmul+1
  1602  003D  0845               	movf	??___flmul+1,w
  1603  003E  1683               	bsf	3,5	;RP0=1, select bank1
  1604  003F  1303               	bcf	3,6	;RP1=0, select bank1
  1605  0040  00A6               	movwf	___flmul@bexp^(0+128)
  1606  0041                     l1794:
  1607  0041  1283               	bcf	3,5	;RP0=0, select bank0
  1608  0042  1303               	bcf	3,6	;RP1=0, select bank0
  1609  0043  1FBE               	btfss	___flmul@b+2,7
  1610  0044  2846               	goto	u2471
  1611  0045  2847               	goto	u2470
  1612  0046                     u2471:
  1613  0046  284A               	goto	l1798
  1614  0047                     u2470:
  1615  0047                     l1796:
  1616  0047  1683               	bsf	3,5	;RP0=1, select bank1
  1617  0048  1303               	bcf	3,6	;RP1=0, select bank1
  1618  0049  1426               	bsf	___flmul@bexp^(0+128),0
  1619  004A                     l1798:
  1620  004A  1683               	bsf	3,5	;RP0=1, select bank1
  1621  004B  1303               	bcf	3,6	;RP1=0, select bank1
  1622  004C  0826               	movf	___flmul@bexp^(0+128),w
  1623  004D  1903               	btfsc	3,2
  1624  004E  2850               	goto	u2481
  1625  004F  2851               	goto	u2480
  1626  0050                     u2481:
  1627  0050  2863               	goto	l1806
  1628  0051                     u2480:
  1629  0051                     l1800:
  1630  0051  0A26               	incf	___flmul@bexp^(0+128),w
  1631  0052  1D03               	btfss	3,2
  1632  0053  2855               	goto	u2491
  1633  0054  2856               	goto	u2490
  1634  0055                     u2491:
  1635  0055  2860               	goto	l1804
  1636  0056                     u2490:
  1637  0056                     l1802:
  1638  0056  3000               	movlw	0
  1639  0057  1283               	bcf	3,5	;RP0=0, select bank0
  1640  0058  1303               	bcf	3,6	;RP1=0, select bank0
  1641  0059  00BF               	movwf	___flmul@b+3
  1642  005A  3000               	movlw	0
  1643  005B  00BE               	movwf	___flmul@b+2
  1644  005C  3000               	movlw	0
  1645  005D  00BD               	movwf	___flmul@b+1
  1646  005E  3000               	movlw	0
  1647  005F  00BC               	movwf	___flmul@b
  1648  0060                     l1804:
  1649  0060  1283               	bcf	3,5	;RP0=0, select bank0
  1650  0061  17BE               	bsf	___flmul@b+2,7
  1651  0062  286D               	goto	l1808
  1652  0063                     l1806:
  1653  0063  3000               	movlw	0
  1654  0064  1283               	bcf	3,5	;RP0=0, select bank0
  1655  0065  1303               	bcf	3,6	;RP1=0, select bank0
  1656  0066  00BF               	movwf	___flmul@b+3
  1657  0067  3000               	movlw	0
  1658  0068  00BE               	movwf	___flmul@b+2
  1659  0069  3000               	movlw	0
  1660  006A  00BD               	movwf	___flmul@b+1
  1661  006B  3000               	movlw	0
  1662  006C  00BC               	movwf	___flmul@b
  1663  006D                     l1808:
  1664  006D  0843               	movf	___flmul@a+3,w
  1665  006E  3980               	andlw	128
  1666  006F  00C4               	movwf	??___flmul
  1667  0070  0844               	movf	??___flmul,w
  1668  0071  1683               	bsf	3,5	;RP0=1, select bank1
  1669  0072  1303               	bcf	3,6	;RP1=0, select bank1
  1670  0073  06A0               	xorwf	___flmul@sign^(0+128),f
  1671  0074                     l1810:
  1672  0074  1283               	bcf	3,5	;RP0=0, select bank0
  1673  0075  1303               	bcf	3,6	;RP1=0, select bank0
  1674  0076  0843               	movf	___flmul@a+3,w
  1675  0077  00C4               	movwf	??___flmul
  1676  0078  0744               	addwf	??___flmul,w
  1677  0079  00C5               	movwf	??___flmul+1
  1678  007A  0845               	movf	??___flmul+1,w
  1679  007B  1683               	bsf	3,5	;RP0=1, select bank1
  1680  007C  1303               	bcf	3,6	;RP1=0, select bank1
  1681  007D  00A1               	movwf	___flmul@aexp^(0+128)
  1682  007E                     l1812:
  1683  007E  1283               	bcf	3,5	;RP0=0, select bank0
  1684  007F  1303               	bcf	3,6	;RP1=0, select bank0
  1685  0080  1FC2               	btfss	___flmul@a+2,7
  1686  0081  2883               	goto	u2501
  1687  0082  2884               	goto	u2500
  1688  0083                     u2501:
  1689  0083  2887               	goto	l1816
  1690  0084                     u2500:
  1691  0084                     l1814:
  1692  0084  1683               	bsf	3,5	;RP0=1, select bank1
  1693  0085  1303               	bcf	3,6	;RP1=0, select bank1
  1694  0086  1421               	bsf	___flmul@aexp^(0+128),0
  1695  0087                     l1816:
  1696  0087  1683               	bsf	3,5	;RP0=1, select bank1
  1697  0088  1303               	bcf	3,6	;RP1=0, select bank1
  1698  0089  0821               	movf	___flmul@aexp^(0+128),w
  1699  008A  1903               	btfsc	3,2
  1700  008B  288D               	goto	u2511
  1701  008C  288E               	goto	u2510
  1702  008D                     u2511:
  1703  008D  28A0               	goto	l1824
  1704  008E                     u2510:
  1705  008E                     l1818:
  1706  008E  0A21               	incf	___flmul@aexp^(0+128),w
  1707  008F  1D03               	btfss	3,2
  1708  0090  2892               	goto	u2521
  1709  0091  2893               	goto	u2520
  1710  0092                     u2521:
  1711  0092  289D               	goto	l1822
  1712  0093                     u2520:
  1713  0093                     l1820:
  1714  0093  3000               	movlw	0
  1715  0094  1283               	bcf	3,5	;RP0=0, select bank0
  1716  0095  1303               	bcf	3,6	;RP1=0, select bank0
  1717  0096  00C3               	movwf	___flmul@a+3
  1718  0097  3000               	movlw	0
  1719  0098  00C2               	movwf	___flmul@a+2
  1720  0099  3000               	movlw	0
  1721  009A  00C1               	movwf	___flmul@a+1
  1722  009B  3000               	movlw	0
  1723  009C  00C0               	movwf	___flmul@a
  1724  009D                     l1822:
  1725  009D  1283               	bcf	3,5	;RP0=0, select bank0
  1726  009E  17C2               	bsf	___flmul@a+2,7
  1727  009F  28AA               	goto	l1826
  1728  00A0                     l1824:
  1729  00A0  3000               	movlw	0
  1730  00A1  1283               	bcf	3,5	;RP0=0, select bank0
  1731  00A2  1303               	bcf	3,6	;RP1=0, select bank0
  1732  00A3  00C3               	movwf	___flmul@a+3
  1733  00A4  3000               	movlw	0
  1734  00A5  00C2               	movwf	___flmul@a+2
  1735  00A6  3000               	movlw	0
  1736  00A7  00C1               	movwf	___flmul@a+1
  1737  00A8  3000               	movlw	0
  1738  00A9  00C0               	movwf	___flmul@a
  1739  00AA                     l1826:
  1740  00AA  1683               	bsf	3,5	;RP0=1, select bank1
  1741  00AB  1303               	bcf	3,6	;RP1=0, select bank1
  1742  00AC  0821               	movf	___flmul@aexp^(0+128),w
  1743  00AD  1903               	btfsc	3,2
  1744  00AE  28B0               	goto	u2531
  1745  00AF  28B1               	goto	u2530
  1746  00B0                     u2531:
  1747  00B0  28B6               	goto	l1830
  1748  00B1                     u2530:
  1749  00B1                     l1828:
  1750  00B1  0826               	movf	___flmul@bexp^(0+128),w
  1751  00B2  1D03               	btfss	3,2
  1752  00B3  28B5               	goto	u2541
  1753  00B4  28B6               	goto	u2540
  1754  00B5                     u2541:
  1755  00B5  28C1               	goto	l1834
  1756  00B6                     u2540:
  1757  00B6                     l1830:
  1758  00B6  3000               	movlw	0
  1759  00B7  1283               	bcf	3,5	;RP0=0, select bank0
  1760  00B8  1303               	bcf	3,6	;RP1=0, select bank0
  1761  00B9  00BF               	movwf	?___flmul+3
  1762  00BA  3000               	movlw	0
  1763  00BB  00BE               	movwf	?___flmul+2
  1764  00BC  3000               	movlw	0
  1765  00BD  00BD               	movwf	?___flmul+1
  1766  00BE  3000               	movlw	0
  1767  00BF  00BC               	movwf	?___flmul
  1768  00C0  2D8C               	goto	l555
  1769  00C1                     l1834:
  1770  00C1  1283               	bcf	3,5	;RP0=0, select bank0
  1771  00C2  1303               	bcf	3,6	;RP1=0, select bank0
  1772  00C3  083C               	movf	___flmul@b,w
  1773  00C4  00C4               	movwf	??___flmul
  1774  00C5  0844               	movf	??___flmul,w
  1775  00C6  00AE               	movwf	__Umul8_16@multiplicand
  1776  00C7  0842               	movf	___flmul@a+2,w
  1777  00C8  120A  158A  22A9  120A  118A  	fcall	__Umul8_16
  1778  00CD  1283               	bcf	3,5	;RP0=0, select bank0
  1779  00CE  1303               	bcf	3,6	;RP1=0, select bank0
  1780  00CF  082F               	movf	?__Umul8_16+1,w
  1781  00D0  1683               	bsf	3,5	;RP0=1, select bank1
  1782  00D1  1303               	bcf	3,6	;RP1=0, select bank1
  1783  00D2  00AC               	movwf	(___flmul@temp+1)^(0+128)
  1784  00D3  1283               	bcf	3,5	;RP0=0, select bank0
  1785  00D4  1303               	bcf	3,6	;RP1=0, select bank0
  1786  00D5  082E               	movf	?__Umul8_16,w
  1787  00D6  1683               	bsf	3,5	;RP0=1, select bank1
  1788  00D7  1303               	bcf	3,6	;RP1=0, select bank1
  1789  00D8  00AB               	movwf	___flmul@temp^(0+128)
  1790  00D9                     l1836:
  1791  00D9  082B               	movf	___flmul@temp^(0+128),w
  1792  00DA  1283               	bcf	3,5	;RP0=0, select bank0
  1793  00DB  1303               	bcf	3,6	;RP1=0, select bank0
  1794  00DC  00C4               	movwf	??___flmul
  1795  00DD  01C5               	clrf	??___flmul+1
  1796  00DE  01C6               	clrf	??___flmul+2
  1797  00DF  01C7               	clrf	??___flmul+3
  1798  00E0  0847               	movf	??___flmul+3,w
  1799  00E1  1683               	bsf	3,5	;RP0=1, select bank1
  1800  00E2  1303               	bcf	3,6	;RP1=0, select bank1
  1801  00E3  00A5               	movwf	(___flmul@grs+3)^(0+128)
  1802  00E4  1283               	bcf	3,5	;RP0=0, select bank0
  1803  00E5  1303               	bcf	3,6	;RP1=0, select bank0
  1804  00E6  0846               	movf	??___flmul+2,w
  1805  00E7  1683               	bsf	3,5	;RP0=1, select bank1
  1806  00E8  1303               	bcf	3,6	;RP1=0, select bank1
  1807  00E9  00A4               	movwf	(___flmul@grs+2)^(0+128)
  1808  00EA  1283               	bcf	3,5	;RP0=0, select bank0
  1809  00EB  1303               	bcf	3,6	;RP1=0, select bank0
  1810  00EC  0845               	movf	??___flmul+1,w
  1811  00ED  1683               	bsf	3,5	;RP0=1, select bank1
  1812  00EE  1303               	bcf	3,6	;RP1=0, select bank1
  1813  00EF  00A3               	movwf	(___flmul@grs+1)^(0+128)
  1814  00F0  1283               	bcf	3,5	;RP0=0, select bank0
  1815  00F1  1303               	bcf	3,6	;RP1=0, select bank0
  1816  00F2  0844               	movf	??___flmul,w
  1817  00F3  1683               	bsf	3,5	;RP0=1, select bank1
  1818  00F4  1303               	bcf	3,6	;RP1=0, select bank1
  1819  00F5  00A2               	movwf	___flmul@grs^(0+128)
  1820  00F6                     l1838:
  1821  00F6  082C               	movf	(___flmul@temp^(0+128)+1),w
  1822  00F7  1283               	bcf	3,5	;RP0=0, select bank0
  1823  00F8  1303               	bcf	3,6	;RP1=0, select bank0
  1824  00F9  00C4               	movwf	??___flmul
  1825  00FA  01C5               	clrf	??___flmul+1
  1826  00FB  01C6               	clrf	??___flmul+2
  1827  00FC  01C7               	clrf	??___flmul+3
  1828  00FD  0847               	movf	??___flmul+3,w
  1829  00FE  1683               	bsf	3,5	;RP0=1, select bank1
  1830  00FF  1303               	bcf	3,6	;RP1=0, select bank1
  1831  0100  00AA               	movwf	(___flmul@prod+3)^(0+128)
  1832  0101  1283               	bcf	3,5	;RP0=0, select bank0
  1833  0102  1303               	bcf	3,6	;RP1=0, select bank0
  1834  0103  0846               	movf	??___flmul+2,w
  1835  0104  1683               	bsf	3,5	;RP0=1, select bank1
  1836  0105  1303               	bcf	3,6	;RP1=0, select bank1
  1837  0106  00A9               	movwf	(___flmul@prod+2)^(0+128)
  1838  0107  1283               	bcf	3,5	;RP0=0, select bank0
  1839  0108  1303               	bcf	3,6	;RP1=0, select bank0
  1840  0109  0845               	movf	??___flmul+1,w
  1841  010A  1683               	bsf	3,5	;RP0=1, select bank1
  1842  010B  1303               	bcf	3,6	;RP1=0, select bank1
  1843  010C  00A8               	movwf	(___flmul@prod+1)^(0+128)
  1844  010D  1283               	bcf	3,5	;RP0=0, select bank0
  1845  010E  1303               	bcf	3,6	;RP1=0, select bank0
  1846  010F  0844               	movf	??___flmul,w
  1847  0110  1683               	bsf	3,5	;RP0=1, select bank1
  1848  0111  1303               	bcf	3,6	;RP1=0, select bank1
  1849  0112  00A7               	movwf	___flmul@prod^(0+128)
  1850  0113  1283               	bcf	3,5	;RP0=0, select bank0
  1851  0114  1303               	bcf	3,6	;RP1=0, select bank0
  1852  0115  083D               	movf	___flmul@b+1,w
  1853  0116  00C4               	movwf	??___flmul
  1854  0117  0844               	movf	??___flmul,w
  1855  0118  00AE               	movwf	__Umul8_16@multiplicand
  1856  0119  0841               	movf	___flmul@a+1,w
  1857  011A  120A  158A  22A9  120A  118A  	fcall	__Umul8_16
  1858  011F  1283               	bcf	3,5	;RP0=0, select bank0
  1859  0120  1303               	bcf	3,6	;RP1=0, select bank0
  1860  0121  082F               	movf	?__Umul8_16+1,w
  1861  0122  1683               	bsf	3,5	;RP0=1, select bank1
  1862  0123  1303               	bcf	3,6	;RP1=0, select bank1
  1863  0124  00AC               	movwf	(___flmul@temp+1)^(0+128)
  1864  0125  1283               	bcf	3,5	;RP0=0, select bank0
  1865  0126  1303               	bcf	3,6	;RP1=0, select bank0
  1866  0127  082E               	movf	?__Umul8_16,w
  1867  0128  1683               	bsf	3,5	;RP0=1, select bank1
  1868  0129  1303               	bcf	3,6	;RP1=0, select bank1
  1869  012A  00AB               	movwf	___flmul@temp^(0+128)
  1870  012B                     l1840:
  1871  012B  082B               	movf	___flmul@temp^(0+128),w
  1872  012C  1283               	bcf	3,5	;RP0=0, select bank0
  1873  012D  1303               	bcf	3,6	;RP1=0, select bank0
  1874  012E  00C4               	movwf	??___flmul
  1875  012F  01C5               	clrf	??___flmul+1
  1876  0130  01C6               	clrf	??___flmul+2
  1877  0131  01C7               	clrf	??___flmul+3
  1878  0132  0844               	movf	??___flmul,w
  1879  0133  1683               	bsf	3,5	;RP0=1, select bank1
  1880  0134  1303               	bcf	3,6	;RP1=0, select bank1
  1881  0135  07A2               	addwf	___flmul@grs^(0+128),f
  1882  0136  1283               	bcf	3,5	;RP0=0, select bank0
  1883  0137  1303               	bcf	3,6	;RP1=0, select bank0
  1884  0138  0845               	movf	??___flmul+1,w
  1885  0139  1103               	clrz
  1886  013A  1803               	skipnc
  1887  013B  3E01               	addlw	1
  1888  013C  1903               	skipnz
  1889  013D  2941               	goto	u2551
  1890  013E  1683               	bsf	3,5	;RP0=1, select bank1
  1891  013F  1303               	bcf	3,6	;RP1=0, select bank1
  1892  0140  07A3               	addwf	(___flmul@grs+1)^(0+128),f
  1893  0141                     u2551:
  1894  0141  1283               	bcf	3,5	;RP0=0, select bank0
  1895  0142  1303               	bcf	3,6	;RP1=0, select bank0
  1896  0143  0846               	movf	??___flmul+2,w
  1897  0144  1103               	clrz
  1898  0145  1803               	skipnc
  1899  0146  3E01               	addlw	1
  1900  0147  1903               	skipnz
  1901  0148  294C               	goto	u2552
  1902  0149  1683               	bsf	3,5	;RP0=1, select bank1
  1903  014A  1303               	bcf	3,6	;RP1=0, select bank1
  1904  014B  07A4               	addwf	(___flmul@grs+2)^(0+128),f
  1905  014C                     u2552:
  1906  014C  1283               	bcf	3,5	;RP0=0, select bank0
  1907  014D  1303               	bcf	3,6	;RP1=0, select bank0
  1908  014E  0847               	movf	??___flmul+3,w
  1909  014F  1103               	clrz
  1910  0150  1803               	skipnc
  1911  0151  3E01               	addlw	1
  1912  0152  1903               	skipnz
  1913  0153  2957               	goto	u2553
  1914  0154  1683               	bsf	3,5	;RP0=1, select bank1
  1915  0155  1303               	bcf	3,6	;RP1=0, select bank1
  1916  0156  07A5               	addwf	(___flmul@grs+3)^(0+128),f
  1917  0157                     u2553:
  1918  0157  1283               	bcf	3,5	;RP0=0, select bank0
  1919  0158  1303               	bcf	3,6	;RP1=0, select bank0
  1920  0159  1683               	bsf	3,5	;RP0=1, select bank1
  1921  015A  1303               	bcf	3,6	;RP1=0, select bank1
  1922  015B                     l1842:
  1923  015B  082C               	movf	(___flmul@temp^(0+128)+1),w
  1924  015C  1283               	bcf	3,5	;RP0=0, select bank0
  1925  015D  1303               	bcf	3,6	;RP1=0, select bank0
  1926  015E  00C4               	movwf	??___flmul
  1927  015F  01C5               	clrf	??___flmul+1
  1928  0160  01C6               	clrf	??___flmul+2
  1929  0161  01C7               	clrf	??___flmul+3
  1930  0162  0844               	movf	??___flmul,w
  1931  0163  1683               	bsf	3,5	;RP0=1, select bank1
  1932  0164  1303               	bcf	3,6	;RP1=0, select bank1
  1933  0165  07A7               	addwf	___flmul@prod^(0+128),f
  1934  0166  1283               	bcf	3,5	;RP0=0, select bank0
  1935  0167  1303               	bcf	3,6	;RP1=0, select bank0
  1936  0168  0845               	movf	??___flmul+1,w
  1937  0169  1103               	clrz
  1938  016A  1803               	skipnc
  1939  016B  3E01               	addlw	1
  1940  016C  1903               	skipnz
  1941  016D  2971               	goto	u2561
  1942  016E  1683               	bsf	3,5	;RP0=1, select bank1
  1943  016F  1303               	bcf	3,6	;RP1=0, select bank1
  1944  0170  07A8               	addwf	(___flmul@prod+1)^(0+128),f
  1945  0171                     u2561:
  1946  0171  1283               	bcf	3,5	;RP0=0, select bank0
  1947  0172  1303               	bcf	3,6	;RP1=0, select bank0
  1948  0173  0846               	movf	??___flmul+2,w
  1949  0174  1103               	clrz
  1950  0175  1803               	skipnc
  1951  0176  3E01               	addlw	1
  1952  0177  1903               	skipnz
  1953  0178  297C               	goto	u2562
  1954  0179  1683               	bsf	3,5	;RP0=1, select bank1
  1955  017A  1303               	bcf	3,6	;RP1=0, select bank1
  1956  017B  07A9               	addwf	(___flmul@prod+2)^(0+128),f
  1957  017C                     u2562:
  1958  017C  1283               	bcf	3,5	;RP0=0, select bank0
  1959  017D  1303               	bcf	3,6	;RP1=0, select bank0
  1960  017E  0847               	movf	??___flmul+3,w
  1961  017F  1103               	clrz
  1962  0180  1803               	skipnc
  1963  0181  3E01               	addlw	1
  1964  0182  1903               	skipnz
  1965  0183  2987               	goto	u2563
  1966  0184  1683               	bsf	3,5	;RP0=1, select bank1
  1967  0185  1303               	bcf	3,6	;RP1=0, select bank1
  1968  0186  07AA               	addwf	(___flmul@prod+3)^(0+128),f
  1969  0187                     u2563:
  1970  0187  1283               	bcf	3,5	;RP0=0, select bank0
  1971  0188  1303               	bcf	3,6	;RP1=0, select bank0
  1972  0189  1683               	bsf	3,5	;RP0=1, select bank1
  1973  018A  1303               	bcf	3,6	;RP1=0, select bank1
  1974  018B  1283               	bcf	3,5	;RP0=0, select bank0
  1975  018C  1303               	bcf	3,6	;RP1=0, select bank0
  1976  018D  083E               	movf	___flmul@b+2,w
  1977  018E  00C4               	movwf	??___flmul
  1978  018F  0844               	movf	??___flmul,w
  1979  0190  00AE               	movwf	__Umul8_16@multiplicand
  1980  0191  0840               	movf	___flmul@a,w
  1981  0192  120A  158A  22A9  120A  118A  	fcall	__Umul8_16
  1982  0197  1283               	bcf	3,5	;RP0=0, select bank0
  1983  0198  1303               	bcf	3,6	;RP1=0, select bank0
  1984  0199  082F               	movf	?__Umul8_16+1,w
  1985  019A  1683               	bsf	3,5	;RP0=1, select bank1
  1986  019B  1303               	bcf	3,6	;RP1=0, select bank1
  1987  019C  00AC               	movwf	(___flmul@temp+1)^(0+128)
  1988  019D  1283               	bcf	3,5	;RP0=0, select bank0
  1989  019E  1303               	bcf	3,6	;RP1=0, select bank0
  1990  019F  082E               	movf	?__Umul8_16,w
  1991  01A0  1683               	bsf	3,5	;RP0=1, select bank1
  1992  01A1  1303               	bcf	3,6	;RP1=0, select bank1
  1993  01A2  00AB               	movwf	___flmul@temp^(0+128)
  1994  01A3                     l1844:
  1995  01A3  082B               	movf	___flmul@temp^(0+128),w
  1996  01A4  1283               	bcf	3,5	;RP0=0, select bank0
  1997  01A5  1303               	bcf	3,6	;RP1=0, select bank0
  1998  01A6  00C4               	movwf	??___flmul
  1999  01A7  01C5               	clrf	??___flmul+1
  2000  01A8  01C6               	clrf	??___flmul+2
  2001  01A9  01C7               	clrf	??___flmul+3
  2002  01AA  0844               	movf	??___flmul,w
  2003  01AB  1683               	bsf	3,5	;RP0=1, select bank1
  2004  01AC  1303               	bcf	3,6	;RP1=0, select bank1
  2005  01AD  07A2               	addwf	___flmul@grs^(0+128),f
  2006  01AE  1283               	bcf	3,5	;RP0=0, select bank0
  2007  01AF  1303               	bcf	3,6	;RP1=0, select bank0
  2008  01B0  0845               	movf	??___flmul+1,w
  2009  01B1  1103               	clrz
  2010  01B2  1803               	skipnc
  2011  01B3  3E01               	addlw	1
  2012  01B4  1903               	skipnz
  2013  01B5  29B9               	goto	u2571
  2014  01B6  1683               	bsf	3,5	;RP0=1, select bank1
  2015  01B7  1303               	bcf	3,6	;RP1=0, select bank1
  2016  01B8  07A3               	addwf	(___flmul@grs+1)^(0+128),f
  2017  01B9                     u2571:
  2018  01B9  1283               	bcf	3,5	;RP0=0, select bank0
  2019  01BA  1303               	bcf	3,6	;RP1=0, select bank0
  2020  01BB  0846               	movf	??___flmul+2,w
  2021  01BC  1103               	clrz
  2022  01BD  1803               	skipnc
  2023  01BE  3E01               	addlw	1
  2024  01BF  1903               	skipnz
  2025  01C0  29C4               	goto	u2572
  2026  01C1  1683               	bsf	3,5	;RP0=1, select bank1
  2027  01C2  1303               	bcf	3,6	;RP1=0, select bank1
  2028  01C3  07A4               	addwf	(___flmul@grs+2)^(0+128),f
  2029  01C4                     u2572:
  2030  01C4  1283               	bcf	3,5	;RP0=0, select bank0
  2031  01C5  1303               	bcf	3,6	;RP1=0, select bank0
  2032  01C6  0847               	movf	??___flmul+3,w
  2033  01C7  1103               	clrz
  2034  01C8  1803               	skipnc
  2035  01C9  3E01               	addlw	1
  2036  01CA  1903               	skipnz
  2037  01CB  29CF               	goto	u2573
  2038  01CC  1683               	bsf	3,5	;RP0=1, select bank1
  2039  01CD  1303               	bcf	3,6	;RP1=0, select bank1
  2040  01CE  07A5               	addwf	(___flmul@grs+3)^(0+128),f
  2041  01CF                     u2573:
  2042  01CF  1283               	bcf	3,5	;RP0=0, select bank0
  2043  01D0  1303               	bcf	3,6	;RP1=0, select bank0
  2044  01D1  1683               	bsf	3,5	;RP0=1, select bank1
  2045  01D2  1303               	bcf	3,6	;RP1=0, select bank1
  2046  01D3                     l1846:
  2047  01D3  082C               	movf	(___flmul@temp^(0+128)+1),w
  2048  01D4  1283               	bcf	3,5	;RP0=0, select bank0
  2049  01D5  1303               	bcf	3,6	;RP1=0, select bank0
  2050  01D6  00C4               	movwf	??___flmul
  2051  01D7  01C5               	clrf	??___flmul+1
  2052  01D8  01C6               	clrf	??___flmul+2
  2053  01D9  01C7               	clrf	??___flmul+3
  2054  01DA  0844               	movf	??___flmul,w
  2055  01DB  1683               	bsf	3,5	;RP0=1, select bank1
  2056  01DC  1303               	bcf	3,6	;RP1=0, select bank1
  2057  01DD  07A7               	addwf	___flmul@prod^(0+128),f
  2058  01DE  1283               	bcf	3,5	;RP0=0, select bank0
  2059  01DF  1303               	bcf	3,6	;RP1=0, select bank0
  2060  01E0  0845               	movf	??___flmul+1,w
  2061  01E1  1103               	clrz
  2062  01E2  1803               	skipnc
  2063  01E3  3E01               	addlw	1
  2064  01E4  1903               	skipnz
  2065  01E5  29E9               	goto	u2581
  2066  01E6  1683               	bsf	3,5	;RP0=1, select bank1
  2067  01E7  1303               	bcf	3,6	;RP1=0, select bank1
  2068  01E8  07A8               	addwf	(___flmul@prod+1)^(0+128),f
  2069  01E9                     u2581:
  2070  01E9  1283               	bcf	3,5	;RP0=0, select bank0
  2071  01EA  1303               	bcf	3,6	;RP1=0, select bank0
  2072  01EB  0846               	movf	??___flmul+2,w
  2073  01EC  1103               	clrz
  2074  01ED  1803               	skipnc
  2075  01EE  3E01               	addlw	1
  2076  01EF  1903               	skipnz
  2077  01F0  29F4               	goto	u2582
  2078  01F1  1683               	bsf	3,5	;RP0=1, select bank1
  2079  01F2  1303               	bcf	3,6	;RP1=0, select bank1
  2080  01F3  07A9               	addwf	(___flmul@prod+2)^(0+128),f
  2081  01F4                     u2582:
  2082  01F4  1283               	bcf	3,5	;RP0=0, select bank0
  2083  01F5  1303               	bcf	3,6	;RP1=0, select bank0
  2084  01F6  0847               	movf	??___flmul+3,w
  2085  01F7  1103               	clrz
  2086  01F8  1803               	skipnc
  2087  01F9  3E01               	addlw	1
  2088  01FA  1903               	skipnz
  2089  01FB  29FF               	goto	u2583
  2090  01FC  1683               	bsf	3,5	;RP0=1, select bank1
  2091  01FD  1303               	bcf	3,6	;RP1=0, select bank1
  2092  01FE  07AA               	addwf	(___flmul@prod+3)^(0+128),f
  2093  01FF                     u2583:
  2094  01FF  1283               	bcf	3,5	;RP0=0, select bank0
  2095  0200  1303               	bcf	3,6	;RP1=0, select bank0
  2096  0201  1683               	bsf	3,5	;RP0=1, select bank1
  2097  0202  1303               	bcf	3,6	;RP1=0, select bank1
  2098  0203                     l1848:
  2099  0203  3008               	movlw	8
  2100  0204  1283               	bcf	3,5	;RP0=0, select bank0
  2101  0205  1303               	bcf	3,6	;RP1=0, select bank0
  2102  0206  00C4               	movwf	??___flmul
  2103  0207                     u2595:
  2104  0207  1003               	clrc
  2105  0208  1683               	bsf	3,5	;RP0=1, select bank1
  2106  0209  1303               	bcf	3,6	;RP1=0, select bank1
  2107  020A  0DA2               	rlf	___flmul@grs^(0+128),f
  2108  020B  0DA3               	rlf	(___flmul@grs+1)^(0+128),f
  2109  020C  0DA4               	rlf	(___flmul@grs+2)^(0+128),f
  2110  020D  0DA5               	rlf	(___flmul@grs+3)^(0+128),f
  2111  020E  1283               	bcf	3,5	;RP0=0, select bank0
  2112  020F  1303               	bcf	3,6	;RP1=0, select bank0
  2113  0210  0BC4               	decfsz	??___flmul,f
  2114  0211  2A07               	goto	u2595
  2115  0212                     l1850:
  2116  0212  083D               	movf	___flmul@b+1,w
  2117  0213  00C4               	movwf	??___flmul
  2118  0214  0844               	movf	??___flmul,w
  2119  0215  00AE               	movwf	__Umul8_16@multiplicand
  2120  0216  0840               	movf	___flmul@a,w
  2121  0217  120A  158A  22A9  120A  118A  	fcall	__Umul8_16
  2122  021C  1283               	bcf	3,5	;RP0=0, select bank0
  2123  021D  1303               	bcf	3,6	;RP1=0, select bank0
  2124  021E  082F               	movf	?__Umul8_16+1,w
  2125  021F  1683               	bsf	3,5	;RP0=1, select bank1
  2126  0220  1303               	bcf	3,6	;RP1=0, select bank1
  2127  0221  00AC               	movwf	(___flmul@temp+1)^(0+128)
  2128  0222  1283               	bcf	3,5	;RP0=0, select bank0
  2129  0223  1303               	bcf	3,6	;RP1=0, select bank0
  2130  0224  082E               	movf	?__Umul8_16,w
  2131  0225  1683               	bsf	3,5	;RP0=1, select bank1
  2132  0226  1303               	bcf	3,6	;RP1=0, select bank1
  2133  0227  00AB               	movwf	___flmul@temp^(0+128)
  2134  0228                     l1852:
  2135  0228  082B               	movf	___flmul@temp^(0+128),w
  2136  0229  1283               	bcf	3,5	;RP0=0, select bank0
  2137  022A  1303               	bcf	3,6	;RP1=0, select bank0
  2138  022B  00C4               	movwf	??___flmul
  2139  022C  1683               	bsf	3,5	;RP0=1, select bank1
  2140  022D  1303               	bcf	3,6	;RP1=0, select bank1
  2141  022E  082C               	movf	(___flmul@temp+1)^(0+128),w
  2142  022F  1283               	bcf	3,5	;RP0=0, select bank0
  2143  0230  1303               	bcf	3,6	;RP1=0, select bank0
  2144  0231  00C5               	movwf	??___flmul+1
  2145  0232  01C6               	clrf	??___flmul+2
  2146  0233  01C7               	clrf	??___flmul+3
  2147  0234  0844               	movf	??___flmul,w
  2148  0235  1683               	bsf	3,5	;RP0=1, select bank1
  2149  0236  1303               	bcf	3,6	;RP1=0, select bank1
  2150  0237  07A2               	addwf	___flmul@grs^(0+128),f
  2151  0238  1283               	bcf	3,5	;RP0=0, select bank0
  2152  0239  1303               	bcf	3,6	;RP1=0, select bank0
  2153  023A  0845               	movf	??___flmul+1,w
  2154  023B  1103               	clrz
  2155  023C  1803               	skipnc
  2156  023D  3E01               	addlw	1
  2157  023E  1903               	skipnz
  2158  023F  2A43               	goto	u2601
  2159  0240  1683               	bsf	3,5	;RP0=1, select bank1
  2160  0241  1303               	bcf	3,6	;RP1=0, select bank1
  2161  0242  07A3               	addwf	(___flmul@grs+1)^(0+128),f
  2162  0243                     u2601:
  2163  0243  1283               	bcf	3,5	;RP0=0, select bank0
  2164  0244  1303               	bcf	3,6	;RP1=0, select bank0
  2165  0245  0846               	movf	??___flmul+2,w
  2166  0246  1103               	clrz
  2167  0247  1803               	skipnc
  2168  0248  3E01               	addlw	1
  2169  0249  1903               	skipnz
  2170  024A  2A4E               	goto	u2602
  2171  024B  1683               	bsf	3,5	;RP0=1, select bank1
  2172  024C  1303               	bcf	3,6	;RP1=0, select bank1
  2173  024D  07A4               	addwf	(___flmul@grs+2)^(0+128),f
  2174  024E                     u2602:
  2175  024E  1283               	bcf	3,5	;RP0=0, select bank0
  2176  024F  1303               	bcf	3,6	;RP1=0, select bank0
  2177  0250  0847               	movf	??___flmul+3,w
  2178  0251  1103               	clrz
  2179  0252  1803               	skipnc
  2180  0253  3E01               	addlw	1
  2181  0254  1903               	skipnz
  2182  0255  2A59               	goto	u2603
  2183  0256  1683               	bsf	3,5	;RP0=1, select bank1
  2184  0257  1303               	bcf	3,6	;RP1=0, select bank1
  2185  0258  07A5               	addwf	(___flmul@grs+3)^(0+128),f
  2186  0259                     u2603:
  2187  0259  1283               	bcf	3,5	;RP0=0, select bank0
  2188  025A  1303               	bcf	3,6	;RP1=0, select bank0
  2189  025B  1683               	bsf	3,5	;RP0=1, select bank1
  2190  025C  1303               	bcf	3,6	;RP1=0, select bank1
  2191  025D                     l1854:
  2192  025D  1283               	bcf	3,5	;RP0=0, select bank0
  2193  025E  1303               	bcf	3,6	;RP1=0, select bank0
  2194  025F  083C               	movf	___flmul@b,w
  2195  0260  00C4               	movwf	??___flmul
  2196  0261  0844               	movf	??___flmul,w
  2197  0262  00AE               	movwf	__Umul8_16@multiplicand
  2198  0263  0841               	movf	___flmul@a+1,w
  2199  0264  120A  158A  22A9  120A  118A  	fcall	__Umul8_16
  2200  0269  1283               	bcf	3,5	;RP0=0, select bank0
  2201  026A  1303               	bcf	3,6	;RP1=0, select bank0
  2202  026B  082F               	movf	?__Umul8_16+1,w
  2203  026C  1683               	bsf	3,5	;RP0=1, select bank1
  2204  026D  1303               	bcf	3,6	;RP1=0, select bank1
  2205  026E  00AC               	movwf	(___flmul@temp+1)^(0+128)
  2206  026F  1283               	bcf	3,5	;RP0=0, select bank0
  2207  0270  1303               	bcf	3,6	;RP1=0, select bank0
  2208  0271  082E               	movf	?__Umul8_16,w
  2209  0272  1683               	bsf	3,5	;RP0=1, select bank1
  2210  0273  1303               	bcf	3,6	;RP1=0, select bank1
  2211  0274  00AB               	movwf	___flmul@temp^(0+128)
  2212  0275                     l1856:
  2213  0275  082B               	movf	___flmul@temp^(0+128),w
  2214  0276  1283               	bcf	3,5	;RP0=0, select bank0
  2215  0277  1303               	bcf	3,6	;RP1=0, select bank0
  2216  0278  00C4               	movwf	??___flmul
  2217  0279  1683               	bsf	3,5	;RP0=1, select bank1
  2218  027A  1303               	bcf	3,6	;RP1=0, select bank1
  2219  027B  082C               	movf	(___flmul@temp+1)^(0+128),w
  2220  027C  1283               	bcf	3,5	;RP0=0, select bank0
  2221  027D  1303               	bcf	3,6	;RP1=0, select bank0
  2222  027E  00C5               	movwf	??___flmul+1
  2223  027F  01C6               	clrf	??___flmul+2
  2224  0280  01C7               	clrf	??___flmul+3
  2225  0281  0844               	movf	??___flmul,w
  2226  0282  1683               	bsf	3,5	;RP0=1, select bank1
  2227  0283  1303               	bcf	3,6	;RP1=0, select bank1
  2228  0284  07A2               	addwf	___flmul@grs^(0+128),f
  2229  0285  1283               	bcf	3,5	;RP0=0, select bank0
  2230  0286  1303               	bcf	3,6	;RP1=0, select bank0
  2231  0287  0845               	movf	??___flmul+1,w
  2232  0288  1103               	clrz
  2233  0289  1803               	skipnc
  2234  028A  3E01               	addlw	1
  2235  028B  1903               	skipnz
  2236  028C  2A90               	goto	u2611
  2237  028D  1683               	bsf	3,5	;RP0=1, select bank1
  2238  028E  1303               	bcf	3,6	;RP1=0, select bank1
  2239  028F  07A3               	addwf	(___flmul@grs+1)^(0+128),f
  2240  0290                     u2611:
  2241  0290  1283               	bcf	3,5	;RP0=0, select bank0
  2242  0291  1303               	bcf	3,6	;RP1=0, select bank0
  2243  0292  0846               	movf	??___flmul+2,w
  2244  0293  1103               	clrz
  2245  0294  1803               	skipnc
  2246  0295  3E01               	addlw	1
  2247  0296  1903               	skipnz
  2248  0297  2A9B               	goto	u2612
  2249  0298  1683               	bsf	3,5	;RP0=1, select bank1
  2250  0299  1303               	bcf	3,6	;RP1=0, select bank1
  2251  029A  07A4               	addwf	(___flmul@grs+2)^(0+128),f
  2252  029B                     u2612:
  2253  029B  1283               	bcf	3,5	;RP0=0, select bank0
  2254  029C  1303               	bcf	3,6	;RP1=0, select bank0
  2255  029D  0847               	movf	??___flmul+3,w
  2256  029E  1103               	clrz
  2257  029F  1803               	skipnc
  2258  02A0  3E01               	addlw	1
  2259  02A1  1903               	skipnz
  2260  02A2  2AA6               	goto	u2613
  2261  02A3  1683               	bsf	3,5	;RP0=1, select bank1
  2262  02A4  1303               	bcf	3,6	;RP1=0, select bank1
  2263  02A5  07A5               	addwf	(___flmul@grs+3)^(0+128),f
  2264  02A6                     u2613:
  2265  02A6  1283               	bcf	3,5	;RP0=0, select bank0
  2266  02A7  1303               	bcf	3,6	;RP1=0, select bank0
  2267  02A8  1683               	bsf	3,5	;RP0=1, select bank1
  2268  02A9  1303               	bcf	3,6	;RP1=0, select bank1
  2269  02AA                     l1858:
  2270  02AA  3008               	movlw	8
  2271  02AB  1283               	bcf	3,5	;RP0=0, select bank0
  2272  02AC  1303               	bcf	3,6	;RP1=0, select bank0
  2273  02AD  00C4               	movwf	??___flmul
  2274  02AE                     u2625:
  2275  02AE  1003               	clrc
  2276  02AF  1683               	bsf	3,5	;RP0=1, select bank1
  2277  02B0  1303               	bcf	3,6	;RP1=0, select bank1
  2278  02B1  0DA2               	rlf	___flmul@grs^(0+128),f
  2279  02B2  0DA3               	rlf	(___flmul@grs+1)^(0+128),f
  2280  02B3  0DA4               	rlf	(___flmul@grs+2)^(0+128),f
  2281  02B4  0DA5               	rlf	(___flmul@grs+3)^(0+128),f
  2282  02B5  1283               	bcf	3,5	;RP0=0, select bank0
  2283  02B6  1303               	bcf	3,6	;RP1=0, select bank0
  2284  02B7  0BC4               	decfsz	??___flmul,f
  2285  02B8  2AAE               	goto	u2625
  2286  02B9  083C               	movf	___flmul@b,w
  2287  02BA  00C4               	movwf	??___flmul
  2288  02BB  0844               	movf	??___flmul,w
  2289  02BC  00AE               	movwf	__Umul8_16@multiplicand
  2290  02BD  0840               	movf	___flmul@a,w
  2291  02BE  120A  158A  22A9  120A  118A  	fcall	__Umul8_16
  2292  02C3  1283               	bcf	3,5	;RP0=0, select bank0
  2293  02C4  1303               	bcf	3,6	;RP1=0, select bank0
  2294  02C5  082F               	movf	?__Umul8_16+1,w
  2295  02C6  1683               	bsf	3,5	;RP0=1, select bank1
  2296  02C7  1303               	bcf	3,6	;RP1=0, select bank1
  2297  02C8  00AC               	movwf	(___flmul@temp+1)^(0+128)
  2298  02C9  1283               	bcf	3,5	;RP0=0, select bank0
  2299  02CA  1303               	bcf	3,6	;RP1=0, select bank0
  2300  02CB  082E               	movf	?__Umul8_16,w
  2301  02CC  1683               	bsf	3,5	;RP0=1, select bank1
  2302  02CD  1303               	bcf	3,6	;RP1=0, select bank1
  2303  02CE  00AB               	movwf	___flmul@temp^(0+128)
  2304  02CF                     l1860:
  2305  02CF  082B               	movf	___flmul@temp^(0+128),w
  2306  02D0  1283               	bcf	3,5	;RP0=0, select bank0
  2307  02D1  1303               	bcf	3,6	;RP1=0, select bank0
  2308  02D2  00C4               	movwf	??___flmul
  2309  02D3  1683               	bsf	3,5	;RP0=1, select bank1
  2310  02D4  1303               	bcf	3,6	;RP1=0, select bank1
  2311  02D5  082C               	movf	(___flmul@temp+1)^(0+128),w
  2312  02D6  1283               	bcf	3,5	;RP0=0, select bank0
  2313  02D7  1303               	bcf	3,6	;RP1=0, select bank0
  2314  02D8  00C5               	movwf	??___flmul+1
  2315  02D9  01C6               	clrf	??___flmul+2
  2316  02DA  01C7               	clrf	??___flmul+3
  2317  02DB  0844               	movf	??___flmul,w
  2318  02DC  1683               	bsf	3,5	;RP0=1, select bank1
  2319  02DD  1303               	bcf	3,6	;RP1=0, select bank1
  2320  02DE  07A2               	addwf	___flmul@grs^(0+128),f
  2321  02DF  1283               	bcf	3,5	;RP0=0, select bank0
  2322  02E0  1303               	bcf	3,6	;RP1=0, select bank0
  2323  02E1  0845               	movf	??___flmul+1,w
  2324  02E2  1103               	clrz
  2325  02E3  1803               	skipnc
  2326  02E4  3E01               	addlw	1
  2327  02E5  1903               	skipnz
  2328  02E6  2AEA               	goto	u2631
  2329  02E7  1683               	bsf	3,5	;RP0=1, select bank1
  2330  02E8  1303               	bcf	3,6	;RP1=0, select bank1
  2331  02E9  07A3               	addwf	(___flmul@grs+1)^(0+128),f
  2332  02EA                     u2631:
  2333  02EA  1283               	bcf	3,5	;RP0=0, select bank0
  2334  02EB  1303               	bcf	3,6	;RP1=0, select bank0
  2335  02EC  0846               	movf	??___flmul+2,w
  2336  02ED  1103               	clrz
  2337  02EE  1803               	skipnc
  2338  02EF  3E01               	addlw	1
  2339  02F0  1903               	skipnz
  2340  02F1  2AF5               	goto	u2632
  2341  02F2  1683               	bsf	3,5	;RP0=1, select bank1
  2342  02F3  1303               	bcf	3,6	;RP1=0, select bank1
  2343  02F4  07A4               	addwf	(___flmul@grs+2)^(0+128),f
  2344  02F5                     u2632:
  2345  02F5  1283               	bcf	3,5	;RP0=0, select bank0
  2346  02F6  1303               	bcf	3,6	;RP1=0, select bank0
  2347  02F7  0847               	movf	??___flmul+3,w
  2348  02F8  1103               	clrz
  2349  02F9  1803               	skipnc
  2350  02FA  3E01               	addlw	1
  2351  02FB  1903               	skipnz
  2352  02FC  2B00               	goto	u2633
  2353  02FD  1683               	bsf	3,5	;RP0=1, select bank1
  2354  02FE  1303               	bcf	3,6	;RP1=0, select bank1
  2355  02FF  07A5               	addwf	(___flmul@grs+3)^(0+128),f
  2356  0300                     u2633:
  2357  0300  1283               	bcf	3,5	;RP0=0, select bank0
  2358  0301  1303               	bcf	3,6	;RP1=0, select bank0
  2359  0302  1683               	bsf	3,5	;RP0=1, select bank1
  2360  0303  1303               	bcf	3,6	;RP1=0, select bank1
  2361  0304                     l1862:
  2362  0304  1283               	bcf	3,5	;RP0=0, select bank0
  2363  0305  1303               	bcf	3,6	;RP1=0, select bank0
  2364  0306  083D               	movf	___flmul@b+1,w
  2365  0307  00C4               	movwf	??___flmul
  2366  0308  0844               	movf	??___flmul,w
  2367  0309  00AE               	movwf	__Umul8_16@multiplicand
  2368  030A  0842               	movf	___flmul@a+2,w
  2369  030B  120A  158A  22A9  120A  118A  	fcall	__Umul8_16
  2370  0310  1283               	bcf	3,5	;RP0=0, select bank0
  2371  0311  1303               	bcf	3,6	;RP1=0, select bank0
  2372  0312  082F               	movf	?__Umul8_16+1,w
  2373  0313  1683               	bsf	3,5	;RP0=1, select bank1
  2374  0314  1303               	bcf	3,6	;RP1=0, select bank1
  2375  0315  00AC               	movwf	(___flmul@temp+1)^(0+128)
  2376  0316  1283               	bcf	3,5	;RP0=0, select bank0
  2377  0317  1303               	bcf	3,6	;RP1=0, select bank0
  2378  0318  082E               	movf	?__Umul8_16,w
  2379  0319  1683               	bsf	3,5	;RP0=1, select bank1
  2380  031A  1303               	bcf	3,6	;RP1=0, select bank1
  2381  031B  00AB               	movwf	___flmul@temp^(0+128)
  2382  031C  082B               	movf	___flmul@temp^(0+128),w
  2383  031D  1283               	bcf	3,5	;RP0=0, select bank0
  2384  031E  1303               	bcf	3,6	;RP1=0, select bank0
  2385  031F  00C4               	movwf	??___flmul
  2386  0320  1683               	bsf	3,5	;RP0=1, select bank1
  2387  0321  1303               	bcf	3,6	;RP1=0, select bank1
  2388  0322  082C               	movf	(___flmul@temp+1)^(0+128),w
  2389  0323  1283               	bcf	3,5	;RP0=0, select bank0
  2390  0324  1303               	bcf	3,6	;RP1=0, select bank0
  2391  0325  00C5               	movwf	??___flmul+1
  2392  0326  01C6               	clrf	??___flmul+2
  2393  0327  01C7               	clrf	??___flmul+3
  2394  0328  0844               	movf	??___flmul,w
  2395  0329  1683               	bsf	3,5	;RP0=1, select bank1
  2396  032A  1303               	bcf	3,6	;RP1=0, select bank1
  2397  032B  07A7               	addwf	___flmul@prod^(0+128),f
  2398  032C  1283               	bcf	3,5	;RP0=0, select bank0
  2399  032D  1303               	bcf	3,6	;RP1=0, select bank0
  2400  032E  0845               	movf	??___flmul+1,w
  2401  032F  1103               	clrz
  2402  0330  1803               	skipnc
  2403  0331  3E01               	addlw	1
  2404  0332  1903               	skipnz
  2405  0333  2B37               	goto	u2641
  2406  0334  1683               	bsf	3,5	;RP0=1, select bank1
  2407  0335  1303               	bcf	3,6	;RP1=0, select bank1
  2408  0336  07A8               	addwf	(___flmul@prod+1)^(0+128),f
  2409  0337                     u2641:
  2410  0337  1283               	bcf	3,5	;RP0=0, select bank0
  2411  0338  1303               	bcf	3,6	;RP1=0, select bank0
  2412  0339  0846               	movf	??___flmul+2,w
  2413  033A  1103               	clrz
  2414  033B  1803               	skipnc
  2415  033C  3E01               	addlw	1
  2416  033D  1903               	skipnz
  2417  033E  2B42               	goto	u2642
  2418  033F  1683               	bsf	3,5	;RP0=1, select bank1
  2419  0340  1303               	bcf	3,6	;RP1=0, select bank1
  2420  0341  07A9               	addwf	(___flmul@prod+2)^(0+128),f
  2421  0342                     u2642:
  2422  0342  1283               	bcf	3,5	;RP0=0, select bank0
  2423  0343  1303               	bcf	3,6	;RP1=0, select bank0
  2424  0344  0847               	movf	??___flmul+3,w
  2425  0345  1103               	clrz
  2426  0346  1803               	skipnc
  2427  0347  3E01               	addlw	1
  2428  0348  1903               	skipnz
  2429  0349  2B4D               	goto	u2643
  2430  034A  1683               	bsf	3,5	;RP0=1, select bank1
  2431  034B  1303               	bcf	3,6	;RP1=0, select bank1
  2432  034C  07AA               	addwf	(___flmul@prod+3)^(0+128),f
  2433  034D                     u2643:
  2434  034D  1283               	bcf	3,5	;RP0=0, select bank0
  2435  034E  1303               	bcf	3,6	;RP1=0, select bank0
  2436  034F  1683               	bsf	3,5	;RP0=1, select bank1
  2437  0350  1303               	bcf	3,6	;RP1=0, select bank1
  2438  0351                     l1864:
  2439  0351  1283               	bcf	3,5	;RP0=0, select bank0
  2440  0352  1303               	bcf	3,6	;RP1=0, select bank0
  2441  0353  083E               	movf	___flmul@b+2,w
  2442  0354  00C4               	movwf	??___flmul
  2443  0355  0844               	movf	??___flmul,w
  2444  0356  00AE               	movwf	__Umul8_16@multiplicand
  2445  0357  0841               	movf	___flmul@a+1,w
  2446  0358  120A  158A  22A9  120A  118A  	fcall	__Umul8_16
  2447  035D  1283               	bcf	3,5	;RP0=0, select bank0
  2448  035E  1303               	bcf	3,6	;RP1=0, select bank0
  2449  035F  082F               	movf	?__Umul8_16+1,w
  2450  0360  1683               	bsf	3,5	;RP0=1, select bank1
  2451  0361  1303               	bcf	3,6	;RP1=0, select bank1
  2452  0362  00AC               	movwf	(___flmul@temp+1)^(0+128)
  2453  0363  1283               	bcf	3,5	;RP0=0, select bank0
  2454  0364  1303               	bcf	3,6	;RP1=0, select bank0
  2455  0365  082E               	movf	?__Umul8_16,w
  2456  0366  1683               	bsf	3,5	;RP0=1, select bank1
  2457  0367  1303               	bcf	3,6	;RP1=0, select bank1
  2458  0368  00AB               	movwf	___flmul@temp^(0+128)
  2459  0369                     l1866:
  2460  0369  082B               	movf	___flmul@temp^(0+128),w
  2461  036A  1283               	bcf	3,5	;RP0=0, select bank0
  2462  036B  1303               	bcf	3,6	;RP1=0, select bank0
  2463  036C  00C4               	movwf	??___flmul
  2464  036D  1683               	bsf	3,5	;RP0=1, select bank1
  2465  036E  1303               	bcf	3,6	;RP1=0, select bank1
  2466  036F  082C               	movf	(___flmul@temp+1)^(0+128),w
  2467  0370  1283               	bcf	3,5	;RP0=0, select bank0
  2468  0371  1303               	bcf	3,6	;RP1=0, select bank0
  2469  0372  00C5               	movwf	??___flmul+1
  2470  0373  01C6               	clrf	??___flmul+2
  2471  0374  01C7               	clrf	??___flmul+3
  2472  0375  0844               	movf	??___flmul,w
  2473  0376  1683               	bsf	3,5	;RP0=1, select bank1
  2474  0377  1303               	bcf	3,6	;RP1=0, select bank1
  2475  0378  07A7               	addwf	___flmul@prod^(0+128),f
  2476  0379  1283               	bcf	3,5	;RP0=0, select bank0
  2477  037A  1303               	bcf	3,6	;RP1=0, select bank0
  2478  037B  0845               	movf	??___flmul+1,w
  2479  037C  1103               	clrz
  2480  037D  1803               	skipnc
  2481  037E  3E01               	addlw	1
  2482  037F  1903               	skipnz
  2483  0380  2B84               	goto	u2651
  2484  0381  1683               	bsf	3,5	;RP0=1, select bank1
  2485  0382  1303               	bcf	3,6	;RP1=0, select bank1
  2486  0383  07A8               	addwf	(___flmul@prod+1)^(0+128),f
  2487  0384                     u2651:
  2488  0384  1283               	bcf	3,5	;RP0=0, select bank0
  2489  0385  1303               	bcf	3,6	;RP1=0, select bank0
  2490  0386  0846               	movf	??___flmul+2,w
  2491  0387  1103               	clrz
  2492  0388  1803               	skipnc
  2493  0389  3E01               	addlw	1
  2494  038A  1903               	skipnz
  2495  038B  2B8F               	goto	u2652
  2496  038C  1683               	bsf	3,5	;RP0=1, select bank1
  2497  038D  1303               	bcf	3,6	;RP1=0, select bank1
  2498  038E  07A9               	addwf	(___flmul@prod+2)^(0+128),f
  2499  038F                     u2652:
  2500  038F  1283               	bcf	3,5	;RP0=0, select bank0
  2501  0390  1303               	bcf	3,6	;RP1=0, select bank0
  2502  0391  0847               	movf	??___flmul+3,w
  2503  0392  1103               	clrz
  2504  0393  1803               	skipnc
  2505  0394  3E01               	addlw	1
  2506  0395  1903               	skipnz
  2507  0396  2B9A               	goto	u2653
  2508  0397  1683               	bsf	3,5	;RP0=1, select bank1
  2509  0398  1303               	bcf	3,6	;RP1=0, select bank1
  2510  0399  07AA               	addwf	(___flmul@prod+3)^(0+128),f
  2511  039A                     u2653:
  2512  039A  1283               	bcf	3,5	;RP0=0, select bank0
  2513  039B  1303               	bcf	3,6	;RP1=0, select bank0
  2514  039C  1683               	bsf	3,5	;RP0=1, select bank1
  2515  039D  1303               	bcf	3,6	;RP1=0, select bank1
  2516  039E  1283               	bcf	3,5	;RP0=0, select bank0
  2517  039F  1303               	bcf	3,6	;RP1=0, select bank0
  2518  03A0  083E               	movf	___flmul@b+2,w
  2519  03A1  00C4               	movwf	??___flmul
  2520  03A2  0844               	movf	??___flmul,w
  2521  03A3  00AE               	movwf	__Umul8_16@multiplicand
  2522  03A4  0842               	movf	___flmul@a+2,w
  2523  03A5  120A  158A  22A9  120A  118A  	fcall	__Umul8_16
  2524  03AA  1283               	bcf	3,5	;RP0=0, select bank0
  2525  03AB  1303               	bcf	3,6	;RP1=0, select bank0
  2526  03AC  082F               	movf	?__Umul8_16+1,w
  2527  03AD  1683               	bsf	3,5	;RP0=1, select bank1
  2528  03AE  1303               	bcf	3,6	;RP1=0, select bank1
  2529  03AF  00AC               	movwf	(___flmul@temp+1)^(0+128)
  2530  03B0  1283               	bcf	3,5	;RP0=0, select bank0
  2531  03B1  1303               	bcf	3,6	;RP1=0, select bank0
  2532  03B2  082E               	movf	?__Umul8_16,w
  2533  03B3  1683               	bsf	3,5	;RP0=1, select bank1
  2534  03B4  1303               	bcf	3,6	;RP1=0, select bank1
  2535  03B5  00AB               	movwf	___flmul@temp^(0+128)
  2536  03B6                     l1868:
  2537  03B6  082B               	movf	___flmul@temp^(0+128),w
  2538  03B7  1283               	bcf	3,5	;RP0=0, select bank0
  2539  03B8  1303               	bcf	3,6	;RP1=0, select bank0
  2540  03B9  00C4               	movwf	??___flmul
  2541  03BA  1683               	bsf	3,5	;RP0=1, select bank1
  2542  03BB  1303               	bcf	3,6	;RP1=0, select bank1
  2543  03BC  082C               	movf	(___flmul@temp+1)^(0+128),w
  2544  03BD  1283               	bcf	3,5	;RP0=0, select bank0
  2545  03BE  1303               	bcf	3,6	;RP1=0, select bank0
  2546  03BF  00C5               	movwf	??___flmul+1
  2547  03C0  01C6               	clrf	??___flmul+2
  2548  03C1  01C7               	clrf	??___flmul+3
  2549  03C2  3008               	movlw	8
  2550  03C3                     u2665:
  2551  03C3  1003               	clrc
  2552  03C4  0DC4               	rlf	??___flmul,f
  2553  03C5  0DC5               	rlf	??___flmul+1,f
  2554  03C6  0DC6               	rlf	??___flmul+2,f
  2555  03C7  0DC7               	rlf	??___flmul+3,f
  2556  03C8                     u2660:
  2557  03C8  3EFF               	addlw	-1
  2558  03C9  1D03               	skipz
  2559  03CA  2BC3               	goto	u2665
  2560  03CB  0844               	movf	??___flmul,w
  2561  03CC  1683               	bsf	3,5	;RP0=1, select bank1
  2562  03CD  1303               	bcf	3,6	;RP1=0, select bank1
  2563  03CE  07A7               	addwf	___flmul@prod^(0+128),f
  2564  03CF  1283               	bcf	3,5	;RP0=0, select bank0
  2565  03D0  1303               	bcf	3,6	;RP1=0, select bank0
  2566  03D1  0845               	movf	??___flmul+1,w
  2567  03D2  1103               	clrz
  2568  03D3  1803               	skipnc
  2569  03D4  3E01               	addlw	1
  2570  03D5  1903               	skipnz
  2571  03D6  2BDA               	goto	u2671
  2572  03D7  1683               	bsf	3,5	;RP0=1, select bank1
  2573  03D8  1303               	bcf	3,6	;RP1=0, select bank1
  2574  03D9  07A8               	addwf	(___flmul@prod+1)^(0+128),f
  2575  03DA                     u2671:
  2576  03DA  1283               	bcf	3,5	;RP0=0, select bank0
  2577  03DB  1303               	bcf	3,6	;RP1=0, select bank0
  2578  03DC  0846               	movf	??___flmul+2,w
  2579  03DD  1103               	clrz
  2580  03DE  1803               	skipnc
  2581  03DF  3E01               	addlw	1
  2582  03E0  1903               	skipnz
  2583  03E1  2BE5               	goto	u2672
  2584  03E2  1683               	bsf	3,5	;RP0=1, select bank1
  2585  03E3  1303               	bcf	3,6	;RP1=0, select bank1
  2586  03E4  07A9               	addwf	(___flmul@prod+2)^(0+128),f
  2587  03E5                     u2672:
  2588  03E5  1283               	bcf	3,5	;RP0=0, select bank0
  2589  03E6  1303               	bcf	3,6	;RP1=0, select bank0
  2590  03E7  0847               	movf	??___flmul+3,w
  2591  03E8  1103               	clrz
  2592  03E9  1803               	skipnc
  2593  03EA  3E01               	addlw	1
  2594  03EB  1903               	skipnz
  2595  03EC  2BF0               	goto	u2673
  2596  03ED  1683               	bsf	3,5	;RP0=1, select bank1
  2597  03EE  1303               	bcf	3,6	;RP1=0, select bank1
  2598  03EF  07AA               	addwf	(___flmul@prod+3)^(0+128),f
  2599  03F0                     u2673:
  2600  03F0  1283               	bcf	3,5	;RP0=0, select bank0
  2601  03F1  1303               	bcf	3,6	;RP1=0, select bank0
  2602  03F2  1683               	bsf	3,5	;RP0=1, select bank1
  2603  03F3  1303               	bcf	3,6	;RP1=0, select bank1
  2604  03F4                     l1870:
  2605  03F4  0822               	movf	___flmul@grs^(0+128),w
  2606  03F5  1283               	bcf	3,5	;RP0=0, select bank0
  2607  03F6  1303               	bcf	3,6	;RP1=0, select bank0
  2608  03F7  00C4               	movwf	??___flmul
  2609  03F8  1683               	bsf	3,5	;RP0=1, select bank1
  2610  03F9  1303               	bcf	3,6	;RP1=0, select bank1
  2611  03FA  0823               	movf	(___flmul@grs+1)^(0+128),w
  2612  03FB  1283               	bcf	3,5	;RP0=0, select bank0
  2613  03FC  1303               	bcf	3,6	;RP1=0, select bank0
  2614  03FD  00C5               	movwf	??___flmul+1
  2615  03FE  1683               	bsf	3,5	;RP0=1, select bank1
  2616  03FF  1303               	bcf	3,6	;RP1=0, select bank1
  2617  0400  0824               	movf	(___flmul@grs+2)^(0+128),w
  2618  0401  1283               	bcf	3,5	;RP0=0, select bank0
  2619  0402  1303               	bcf	3,6	;RP1=0, select bank0
  2620  0403  00C6               	movwf	??___flmul+2
  2621  0404  1683               	bsf	3,5	;RP0=1, select bank1
  2622  0405  1303               	bcf	3,6	;RP1=0, select bank1
  2623  0406  0825               	movf	(___flmul@grs+3)^(0+128),w
  2624  0407  1283               	bcf	3,5	;RP0=0, select bank0
  2625  0408  1303               	bcf	3,6	;RP1=0, select bank0
  2626  0409  00C7               	movwf	??___flmul+3
  2627  040A  3018               	movlw	24
  2628  040B                     u2685:
  2629  040B  1003               	clrc
  2630  040C  0CC7               	rrf	??___flmul+3,f
  2631  040D  0CC6               	rrf	??___flmul+2,f
  2632  040E  0CC5               	rrf	??___flmul+1,f
  2633  040F  0CC4               	rrf	??___flmul,f
  2634  0410                     u2680:
  2635  0410  3EFF               	addlw	-1
  2636  0411  1D03               	skipz
  2637  0412  2C0B               	goto	u2685
  2638  0413  0844               	movf	??___flmul,w
  2639  0414  1683               	bsf	3,5	;RP0=1, select bank1
  2640  0415  1303               	bcf	3,6	;RP1=0, select bank1
  2641  0416  07A7               	addwf	___flmul@prod^(0+128),f
  2642  0417  1283               	bcf	3,5	;RP0=0, select bank0
  2643  0418  1303               	bcf	3,6	;RP1=0, select bank0
  2644  0419  0845               	movf	??___flmul+1,w
  2645  041A  1103               	clrz
  2646  041B  1803               	skipnc
  2647  041C  3E01               	addlw	1
  2648  041D  1903               	skipnz
  2649  041E  2C22               	goto	u2691
  2650  041F  1683               	bsf	3,5	;RP0=1, select bank1
  2651  0420  1303               	bcf	3,6	;RP1=0, select bank1
  2652  0421  07A8               	addwf	(___flmul@prod+1)^(0+128),f
  2653  0422                     u2691:
  2654  0422  1283               	bcf	3,5	;RP0=0, select bank0
  2655  0423  1303               	bcf	3,6	;RP1=0, select bank0
  2656  0424  0846               	movf	??___flmul+2,w
  2657  0425  1103               	clrz
  2658  0426  1803               	skipnc
  2659  0427  3E01               	addlw	1
  2660  0428  1903               	skipnz
  2661  0429  2C2D               	goto	u2692
  2662  042A  1683               	bsf	3,5	;RP0=1, select bank1
  2663  042B  1303               	bcf	3,6	;RP1=0, select bank1
  2664  042C  07A9               	addwf	(___flmul@prod+2)^(0+128),f
  2665  042D                     u2692:
  2666  042D  1283               	bcf	3,5	;RP0=0, select bank0
  2667  042E  1303               	bcf	3,6	;RP1=0, select bank0
  2668  042F  0847               	movf	??___flmul+3,w
  2669  0430  1103               	clrz
  2670  0431  1803               	skipnc
  2671  0432  3E01               	addlw	1
  2672  0433  1903               	skipnz
  2673  0434  2C38               	goto	u2693
  2674  0435  1683               	bsf	3,5	;RP0=1, select bank1
  2675  0436  1303               	bcf	3,6	;RP1=0, select bank1
  2676  0437  07AA               	addwf	(___flmul@prod+3)^(0+128),f
  2677  0438                     u2693:
  2678  0438  1283               	bcf	3,5	;RP0=0, select bank0
  2679  0439  1303               	bcf	3,6	;RP1=0, select bank0
  2680  043A  1683               	bsf	3,5	;RP0=1, select bank1
  2681  043B  1303               	bcf	3,6	;RP1=0, select bank1
  2682  043C                     l1872:
  2683  043C  3008               	movlw	8
  2684  043D  1283               	bcf	3,5	;RP0=0, select bank0
  2685  043E  1303               	bcf	3,6	;RP1=0, select bank0
  2686  043F  00C4               	movwf	??___flmul
  2687  0440                     u2705:
  2688  0440  1003               	clrc
  2689  0441  1683               	bsf	3,5	;RP0=1, select bank1
  2690  0442  1303               	bcf	3,6	;RP1=0, select bank1
  2691  0443  0DA2               	rlf	___flmul@grs^(0+128),f
  2692  0444  0DA3               	rlf	(___flmul@grs+1)^(0+128),f
  2693  0445  0DA4               	rlf	(___flmul@grs+2)^(0+128),f
  2694  0446  0DA5               	rlf	(___flmul@grs+3)^(0+128),f
  2695  0447  1283               	bcf	3,5	;RP0=0, select bank0
  2696  0448  1303               	bcf	3,6	;RP1=0, select bank0
  2697  0449  0BC4               	decfsz	??___flmul,f
  2698  044A  2C40               	goto	u2705
  2699  044B                     l1874:
  2700  044B  1683               	bsf	3,5	;RP0=1, select bank1
  2701  044C  1303               	bcf	3,6	;RP1=0, select bank1
  2702  044D  0826               	movf	___flmul@bexp^(0+128),w
  2703  044E  0721               	addwf	___flmul@aexp^(0+128),w
  2704  044F  1283               	bcf	3,5	;RP0=0, select bank0
  2705  0450  1303               	bcf	3,6	;RP1=0, select bank0
  2706  0451  00C4               	movwf	??___flmul
  2707  0452  01C5               	clrf	??___flmul+1
  2708  0453  0DC5               	rlf	??___flmul+1,f
  2709  0454  0844               	movf	??___flmul,w
  2710  0455  3E82               	addlw	130
  2711  0456  1683               	bsf	3,5	;RP0=1, select bank1
  2712  0457  1303               	bcf	3,6	;RP1=0, select bank1
  2713  0458  00AB               	movwf	___flmul@temp^(0+128)
  2714  0459  1283               	bcf	3,5	;RP0=0, select bank0
  2715  045A  1303               	bcf	3,6	;RP1=0, select bank0
  2716  045B  0845               	movf	??___flmul+1,w
  2717  045C  1803               	skipnc
  2718  045D  3E01               	addlw	1
  2719  045E  3EFF               	addlw	255
  2720  045F  1683               	bsf	3,5	;RP0=1, select bank1
  2721  0460  1303               	bcf	3,6	;RP1=0, select bank1
  2722  0461  00AC               	movwf	(___flmul@temp+1)^(0+128)
  2723  0462  2C90               	goto	l1886
  2724  0463                     l1876:
  2725  0463  3001               	movlw	1
  2726  0464  1283               	bcf	3,5	;RP0=0, select bank0
  2727  0465  1303               	bcf	3,6	;RP1=0, select bank0
  2728  0466  00C4               	movwf	??___flmul
  2729  0467                     u2715:
  2730  0467  1003               	clrc
  2731  0468  1683               	bsf	3,5	;RP0=1, select bank1
  2732  0469  1303               	bcf	3,6	;RP1=0, select bank1
  2733  046A  0DA7               	rlf	___flmul@prod^(0+128),f
  2734  046B  0DA8               	rlf	(___flmul@prod+1)^(0+128),f
  2735  046C  0DA9               	rlf	(___flmul@prod+2)^(0+128),f
  2736  046D  0DAA               	rlf	(___flmul@prod+3)^(0+128),f
  2737  046E  1283               	bcf	3,5	;RP0=0, select bank0
  2738  046F  1303               	bcf	3,6	;RP1=0, select bank0
  2739  0470  0BC4               	decfsz	??___flmul,f
  2740  0471  2C67               	goto	u2715
  2741  0472                     l1878:
  2742  0472  1683               	bsf	3,5	;RP0=1, select bank1
  2743  0473  1303               	bcf	3,6	;RP1=0, select bank1
  2744  0474  1FA5               	btfss	(___flmul@grs+3)^(0+128),7
  2745  0475  2C77               	goto	u2721
  2746  0476  2C78               	goto	u2720
  2747  0477                     u2721:
  2748  0477  2C79               	goto	l1882
  2749  0478                     u2720:
  2750  0478                     l1880:
  2751  0478  1427               	bsf	___flmul@prod^(0+128),0
  2752  0479                     l1882:
  2753  0479  3001               	movlw	1
  2754  047A  1283               	bcf	3,5	;RP0=0, select bank0
  2755  047B  1303               	bcf	3,6	;RP1=0, select bank0
  2756  047C  00C4               	movwf	??___flmul
  2757  047D                     u2735:
  2758  047D  1003               	clrc
  2759  047E  1683               	bsf	3,5	;RP0=1, select bank1
  2760  047F  1303               	bcf	3,6	;RP1=0, select bank1
  2761  0480  0DA2               	rlf	___flmul@grs^(0+128),f
  2762  0481  0DA3               	rlf	(___flmul@grs+1)^(0+128),f
  2763  0482  0DA4               	rlf	(___flmul@grs+2)^(0+128),f
  2764  0483  0DA5               	rlf	(___flmul@grs+3)^(0+128),f
  2765  0484  1283               	bcf	3,5	;RP0=0, select bank0
  2766  0485  1303               	bcf	3,6	;RP1=0, select bank0
  2767  0486  0BC4               	decfsz	??___flmul,f
  2768  0487  2C7D               	goto	u2735
  2769  0488                     l1884:
  2770  0488  30FF               	movlw	255
  2771  0489  1683               	bsf	3,5	;RP0=1, select bank1
  2772  048A  1303               	bcf	3,6	;RP1=0, select bank1
  2773  048B  07AB               	addwf	___flmul@temp^(0+128),f
  2774  048C  1803               	skipnc
  2775  048D  0AAC               	incf	(___flmul@temp+1)^(0+128),f
  2776  048E  30FF               	movlw	255
  2777  048F  07AC               	addwf	(___flmul@temp+1)^(0+128),f
  2778  0490                     l1886:
  2779  0490  1FA9               	btfss	(___flmul@prod+2)^(0+128),7
  2780  0491  2C93               	goto	u2741
  2781  0492  2C94               	goto	u2740
  2782  0493                     u2741:
  2783  0493  2C63               	goto	l1876
  2784  0494                     u2740:
  2785  0494                     l1888:
  2786  0494  01A1               	clrf	___flmul@aexp^(0+128)
  2787  0495                     l1890:
  2788  0495  1FA5               	btfss	(___flmul@grs+3)^(0+128),7
  2789  0496  2C98               	goto	u2751
  2790  0497  2C99               	goto	u2750
  2791  0498                     u2751:
  2792  0498  2CC7               	goto	l1898
  2793  0499                     u2750:
  2794  0499                     l1892:
  2795  0499  30FF               	movlw	255
  2796  049A  0522               	andwf	___flmul@grs^(0+128),w
  2797  049B  1283               	bcf	3,5	;RP0=0, select bank0
  2798  049C  1303               	bcf	3,6	;RP1=0, select bank0
  2799  049D  00C4               	movwf	??___flmul
  2800  049E  30FF               	movlw	255
  2801  049F  1683               	bsf	3,5	;RP0=1, select bank1
  2802  04A0  1303               	bcf	3,6	;RP1=0, select bank1
  2803  04A1  0523               	andwf	(___flmul@grs+1)^(0+128),w
  2804  04A2  1283               	bcf	3,5	;RP0=0, select bank0
  2805  04A3  1303               	bcf	3,6	;RP1=0, select bank0
  2806  04A4  00C5               	movwf	??___flmul+1
  2807  04A5  30FF               	movlw	255
  2808  04A6  1683               	bsf	3,5	;RP0=1, select bank1
  2809  04A7  1303               	bcf	3,6	;RP1=0, select bank1
  2810  04A8  0524               	andwf	(___flmul@grs+2)^(0+128),w
  2811  04A9  1283               	bcf	3,5	;RP0=0, select bank0
  2812  04AA  1303               	bcf	3,6	;RP1=0, select bank0
  2813  04AB  00C6               	movwf	??___flmul+2
  2814  04AC  307F               	movlw	127
  2815  04AD  1683               	bsf	3,5	;RP0=1, select bank1
  2816  04AE  1303               	bcf	3,6	;RP1=0, select bank1
  2817  04AF  0525               	andwf	(___flmul@grs+3)^(0+128),w
  2818  04B0  1283               	bcf	3,5	;RP0=0, select bank0
  2819  04B1  1303               	bcf	3,6	;RP1=0, select bank0
  2820  04B2  00C7               	movwf	??___flmul+3
  2821  04B3  0847               	movf	??___flmul+3,w
  2822  04B4  0446               	iorwf	??___flmul+2,w
  2823  04B5  0445               	iorwf	??___flmul+1,w
  2824  04B6  0444               	iorwf	??___flmul,w
  2825  04B7  1903               	skipnz
  2826  04B8  2CBA               	goto	u2761
  2827  04B9  2CBB               	goto	u2760
  2828  04BA                     u2761:
  2829  04BA  2CC0               	goto	l561
  2830  04BB                     u2760:
  2831  04BB                     l1894:
  2832  04BB  1683               	bsf	3,5	;RP0=1, select bank1
  2833  04BC  1303               	bcf	3,6	;RP1=0, select bank1
  2834  04BD  01A1               	clrf	___flmul@aexp^(0+128)
  2835  04BE  0AA1               	incf	___flmul@aexp^(0+128),f
  2836  04BF  2CC7               	goto	l1898
  2837  04C0                     l561:
  2838  04C0  1683               	bsf	3,5	;RP0=1, select bank1
  2839  04C1  1303               	bcf	3,6	;RP1=0, select bank1
  2840  04C2  1C27               	btfss	___flmul@prod^(0+128),0
  2841  04C3  2CC5               	goto	u2771
  2842  04C4  2CC6               	goto	u2770
  2843  04C5                     u2771:
  2844  04C5  2CC7               	goto	l1898
  2845  04C6                     u2770:
  2846  04C6  2CBB               	goto	l1894
  2847  04C7                     l1898:
  2848  04C7  0821               	movf	___flmul@aexp^(0+128),w
  2849  04C8  1903               	btfsc	3,2
  2850  04C9  2CCB               	goto	u2781
  2851  04CA  2CCC               	goto	u2780
  2852  04CB                     u2781:
  2853  04CB  2D19               	goto	l1908
  2854  04CC                     u2780:
  2855  04CC                     l1900:
  2856  04CC  3001               	movlw	1
  2857  04CD  07A7               	addwf	___flmul@prod^(0+128),f
  2858  04CE  3000               	movlw	0
  2859  04CF  1803               	skipnc
  2860  04D0  3001               	movlw	1
  2861  04D1  07A8               	addwf	(___flmul@prod+1)^(0+128),f
  2862  04D2  3000               	movlw	0
  2863  04D3  1803               	skipnc
  2864  04D4  3001               	movlw	1
  2865  04D5  07A9               	addwf	(___flmul@prod+2)^(0+128),f
  2866  04D6  3000               	movlw	0
  2867  04D7  1803               	skipnc
  2868  04D8  3001               	movlw	1
  2869  04D9  07AA               	addwf	(___flmul@prod+3)^(0+128),f
  2870  04DA                     l1902:
  2871  04DA  1C2A               	btfss	(___flmul@prod+3)^(0+128),0
  2872  04DB  2CDD               	goto	u2791
  2873  04DC  2CDE               	goto	u2790
  2874  04DD                     u2791:
  2875  04DD  2D19               	goto	l1908
  2876  04DE                     u2790:
  2877  04DE                     l1904:
  2878  04DE  0827               	movf	___flmul@prod^(0+128),w
  2879  04DF  1283               	bcf	3,5	;RP0=0, select bank0
  2880  04E0  1303               	bcf	3,6	;RP1=0, select bank0
  2881  04E1  00C4               	movwf	??___flmul
  2882  04E2  1683               	bsf	3,5	;RP0=1, select bank1
  2883  04E3  1303               	bcf	3,6	;RP1=0, select bank1
  2884  04E4  0828               	movf	(___flmul@prod+1)^(0+128),w
  2885  04E5  1283               	bcf	3,5	;RP0=0, select bank0
  2886  04E6  1303               	bcf	3,6	;RP1=0, select bank0
  2887  04E7  00C5               	movwf	??___flmul+1
  2888  04E8  1683               	bsf	3,5	;RP0=1, select bank1
  2889  04E9  1303               	bcf	3,6	;RP1=0, select bank1
  2890  04EA  0829               	movf	(___flmul@prod+2)^(0+128),w
  2891  04EB  1283               	bcf	3,5	;RP0=0, select bank0
  2892  04EC  1303               	bcf	3,6	;RP1=0, select bank0
  2893  04ED  00C6               	movwf	??___flmul+2
  2894  04EE  1683               	bsf	3,5	;RP0=1, select bank1
  2895  04EF  1303               	bcf	3,6	;RP1=0, select bank1
  2896  04F0  082A               	movf	(___flmul@prod+3)^(0+128),w
  2897  04F1  1283               	bcf	3,5	;RP0=0, select bank0
  2898  04F2  1303               	bcf	3,6	;RP1=0, select bank0
  2899  04F3  00C7               	movwf	??___flmul+3
  2900  04F4  3001               	movlw	1
  2901  04F5  00C8               	movwf	??___flmul+4
  2902  04F6                     u2805:
  2903  04F6  0D47               	rlf	??___flmul+3,w
  2904  04F7  0CC7               	rrf	??___flmul+3,f
  2905  04F8  0CC6               	rrf	??___flmul+2,f
  2906  04F9  0CC5               	rrf	??___flmul+1,f
  2907  04FA  0CC4               	rrf	??___flmul,f
  2908  04FB                     u2800:
  2909  04FB  0BC8               	decfsz	??___flmul+4,f
  2910  04FC  2CF6               	goto	u2805
  2911  04FD  0847               	movf	??___flmul+3,w
  2912  04FE  1683               	bsf	3,5	;RP0=1, select bank1
  2913  04FF  1303               	bcf	3,6	;RP1=0, select bank1
  2914  0500  00AA               	movwf	(___flmul@prod+3)^(0+128)
  2915  0501  1283               	bcf	3,5	;RP0=0, select bank0
  2916  0502  1303               	bcf	3,6	;RP1=0, select bank0
  2917  0503  0846               	movf	??___flmul+2,w
  2918  0504  1683               	bsf	3,5	;RP0=1, select bank1
  2919  0505  1303               	bcf	3,6	;RP1=0, select bank1
  2920  0506  00A9               	movwf	(___flmul@prod+2)^(0+128)
  2921  0507  1283               	bcf	3,5	;RP0=0, select bank0
  2922  0508  1303               	bcf	3,6	;RP1=0, select bank0
  2923  0509  0845               	movf	??___flmul+1,w
  2924  050A  1683               	bsf	3,5	;RP0=1, select bank1
  2925  050B  1303               	bcf	3,6	;RP1=0, select bank1
  2926  050C  00A8               	movwf	(___flmul@prod+1)^(0+128)
  2927  050D  1283               	bcf	3,5	;RP0=0, select bank0
  2928  050E  1303               	bcf	3,6	;RP1=0, select bank0
  2929  050F  0844               	movf	??___flmul,w
  2930  0510  1683               	bsf	3,5	;RP0=1, select bank1
  2931  0511  1303               	bcf	3,6	;RP1=0, select bank1
  2932  0512  00A7               	movwf	___flmul@prod^(0+128)
  2933  0513                     l1906:
  2934  0513  3001               	movlw	1
  2935  0514  07AB               	addwf	___flmul@temp^(0+128),f
  2936  0515  1803               	skipnc
  2937  0516  0AAC               	incf	(___flmul@temp+1)^(0+128),f
  2938  0517  3000               	movlw	0
  2939  0518  07AC               	addwf	(___flmul@temp+1)^(0+128),f
  2940  0519                     l1908:
  2941  0519  082C               	movf	(___flmul@temp+1)^(0+128),w
  2942  051A  3A80               	xorlw	128
  2943  051B  00FF               	movwf	btemp+1
  2944  051C  3080               	movlw	128
  2945  051D  027F               	subwf	btemp+1,w
  2946  051E  1D03               	skipz
  2947  051F  2D22               	goto	u2815
  2948  0520  30FF               	movlw	255
  2949  0521  022B               	subwf	___flmul@temp^(0+128),w
  2950  0522                     u2815:
  2951  0522  1C03               	skipc
  2952  0523  2D25               	goto	u2811
  2953  0524  2D26               	goto	u2810
  2954  0525                     u2811:
  2955  0525  2D31               	goto	l1912
  2956  0526                     u2810:
  2957  0526                     l1910:
  2958  0526  307F               	movlw	127
  2959  0527  1683               	bsf	3,5	;RP0=1, select bank1
  2960  0528  1303               	bcf	3,6	;RP1=0, select bank1
  2961  0529  00AA               	movwf	(___flmul@prod+3)^(0+128)
  2962  052A  3080               	movlw	128
  2963  052B  00A9               	movwf	(___flmul@prod+2)^(0+128)
  2964  052C  3000               	movlw	0
  2965  052D  00A8               	movwf	(___flmul@prod+1)^(0+128)
  2966  052E  3000               	movlw	0
  2967  052F  00A7               	movwf	___flmul@prod^(0+128)
  2968  0530  2D6E               	goto	l567
  2969  0531                     l1912:
  2970  0531  1683               	bsf	3,5	;RP0=1, select bank1
  2971  0532  1303               	bcf	3,6	;RP1=0, select bank1
  2972  0533  082C               	movf	(___flmul@temp+1)^(0+128),w
  2973  0534  3A80               	xorlw	128
  2974  0535  00FF               	movwf	btemp+1
  2975  0536  3080               	movlw	128
  2976  0537  027F               	subwf	btemp+1,w
  2977  0538  1D03               	skipz
  2978  0539  2D3C               	goto	u2825
  2979  053A  3001               	movlw	1
  2980  053B  022B               	subwf	___flmul@temp^(0+128),w
  2981  053C                     u2825:
  2982  053C  1803               	skipnc
  2983  053D  2D3F               	goto	u2821
  2984  053E  2D40               	goto	u2820
  2985  053F                     u2821:
  2986  053F  2D4C               	goto	l1918
  2987  0540                     u2820:
  2988  0540                     l1914:
  2989  0540  3000               	movlw	0
  2990  0541  1683               	bsf	3,5	;RP0=1, select bank1
  2991  0542  1303               	bcf	3,6	;RP1=0, select bank1
  2992  0543  00AA               	movwf	(___flmul@prod+3)^(0+128)
  2993  0544  3000               	movlw	0
  2994  0545  00A9               	movwf	(___flmul@prod+2)^(0+128)
  2995  0546  3000               	movlw	0
  2996  0547  00A8               	movwf	(___flmul@prod+1)^(0+128)
  2997  0548  3000               	movlw	0
  2998  0549  00A7               	movwf	___flmul@prod^(0+128)
  2999  054A                     l1916:
  3000  054A  01A0               	clrf	___flmul@sign^(0+128)
  3001  054B  2D6E               	goto	l567
  3002  054C                     l1918:
  3003  054C  1683               	bsf	3,5	;RP0=1, select bank1
  3004  054D  1303               	bcf	3,6	;RP1=0, select bank1
  3005  054E  082B               	movf	___flmul@temp^(0+128),w
  3006  054F  1283               	bcf	3,5	;RP0=0, select bank0
  3007  0550  1303               	bcf	3,6	;RP1=0, select bank0
  3008  0551  00C4               	movwf	??___flmul
  3009  0552  0844               	movf	??___flmul,w
  3010  0553  1683               	bsf	3,5	;RP0=1, select bank1
  3011  0554  1303               	bcf	3,6	;RP1=0, select bank1
  3012  0555  00A6               	movwf	___flmul@bexp^(0+128)
  3013  0556  30FF               	movlw	255
  3014  0557  05A7               	andwf	___flmul@prod^(0+128),f
  3015  0558  30FF               	movlw	255
  3016  0559  05A8               	andwf	(___flmul@prod+1)^(0+128),f
  3017  055A  307F               	movlw	127
  3018  055B  05A9               	andwf	(___flmul@prod+2)^(0+128),f
  3019  055C  3000               	movlw	0
  3020  055D  05AA               	andwf	(___flmul@prod+3)^(0+128),f
  3021  055E                     l1920:
  3022  055E  1C26               	btfss	___flmul@bexp^(0+128),0
  3023  055F  2D61               	goto	u2831
  3024  0560  2D62               	goto	u2830
  3025  0561                     u2831:
  3026  0561  2D63               	goto	l1924
  3027  0562                     u2830:
  3028  0562                     l1922:
  3029  0562  17A9               	bsf	(___flmul@prod^(0+128)+2),7
  3030  0563                     l1924:
  3031  0563  0826               	movf	___flmul@bexp^(0+128),w
  3032  0564  1283               	bcf	3,5	;RP0=0, select bank0
  3033  0565  1303               	bcf	3,6	;RP1=0, select bank0
  3034  0566  00C4               	movwf	??___flmul
  3035  0567  1003               	clrc
  3036  0568  0C44               	rrf	??___flmul,w
  3037  0569  00C5               	movwf	??___flmul+1
  3038  056A  0845               	movf	??___flmul+1,w
  3039  056B  1683               	bsf	3,5	;RP0=1, select bank1
  3040  056C  1303               	bcf	3,6	;RP1=0, select bank1
  3041  056D  00AA               	movwf	(___flmul@prod^(0+128)+3)
  3042  056E                     l567:
  3043  056E  0820               	movf	___flmul@sign^(0+128),w
  3044  056F  1283               	bcf	3,5	;RP0=0, select bank0
  3045  0570  1303               	bcf	3,6	;RP1=0, select bank0
  3046  0571  00C4               	movwf	??___flmul
  3047  0572  0844               	movf	??___flmul,w
  3048  0573  1683               	bsf	3,5	;RP0=1, select bank1
  3049  0574  1303               	bcf	3,6	;RP1=0, select bank1
  3050  0575  04AA               	iorwf	(___flmul@prod^(0+128)+3),f
  3051  0576                     l1926:
  3052  0576  082A               	movf	(___flmul@prod+3)^(0+128),w
  3053  0577  1283               	bcf	3,5	;RP0=0, select bank0
  3054  0578  1303               	bcf	3,6	;RP1=0, select bank0
  3055  0579  00BF               	movwf	?___flmul+3
  3056  057A  1683               	bsf	3,5	;RP0=1, select bank1
  3057  057B  1303               	bcf	3,6	;RP1=0, select bank1
  3058  057C  0829               	movf	(___flmul@prod+2)^(0+128),w
  3059  057D  1283               	bcf	3,5	;RP0=0, select bank0
  3060  057E  1303               	bcf	3,6	;RP1=0, select bank0
  3061  057F  00BE               	movwf	?___flmul+2
  3062  0580  1683               	bsf	3,5	;RP0=1, select bank1
  3063  0581  1303               	bcf	3,6	;RP1=0, select bank1
  3064  0582  0828               	movf	(___flmul@prod+1)^(0+128),w
  3065  0583  1283               	bcf	3,5	;RP0=0, select bank0
  3066  0584  1303               	bcf	3,6	;RP1=0, select bank0
  3067  0585  00BD               	movwf	?___flmul+1
  3068  0586  1683               	bsf	3,5	;RP0=1, select bank1
  3069  0587  1303               	bcf	3,6	;RP1=0, select bank1
  3070  0588  0827               	movf	___flmul@prod^(0+128),w
  3071  0589  1283               	bcf	3,5	;RP0=0, select bank0
  3072  058A  1303               	bcf	3,6	;RP1=0, select bank0
  3073  058B  00BC               	movwf	?___flmul
  3074  058C                     l555:
  3075  058C  0008               	return
  3076  058D                     __end_of___flmul:
  3077                           
  3078                           	psect	text5
  3079  0AA9                     __ptext5:	
  3080 ;; *************** function __Umul8_16 *****************
  3081 ;; Defined at:
  3082 ;;		line 4 in file "C:\Program Files\Microchip\xc8\v2.32\pic\sources\c90\common\Umul8_16.c"
  3083 ;; Parameters:    Size  Location     Type
  3084 ;;  multiplier      1    wreg     unsigned char 
  3085 ;;  multiplicand    1   14[BANK0 ] unsigned char 
  3086 ;; Auto vars:     Size  Location     Type
  3087 ;;  multiplier      1   22[BANK0 ] unsigned char 
  3088 ;;  word_mpld       2   20[BANK0 ] unsigned int 
  3089 ;;  product         2   18[BANK0 ] unsigned int 
  3090 ;; Return value:  Size  Location     Type
  3091 ;;                  2   14[BANK0 ] unsigned int 
  3092 ;; Registers used:
  3093 ;;		wreg, status,2, status,0
  3094 ;; Tracked objects:
  3095 ;;		On entry : 0/0
  3096 ;;		On exit  : 0/0
  3097 ;;		Unchanged: 0/0
  3098 ;; Data sizes:     COMMON   BANK0   BANK1   BANK3   BANK2
  3099 ;;      Params:         0       2       0       0       0
  3100 ;;      Locals:         0       5       0       0       0
  3101 ;;      Temps:          0       2       0       0       0
  3102 ;;      Totals:         0       9       0       0       0
  3103 ;;Total ram usage:        9 bytes
  3104 ;; Hardware stack levels used: 1
  3105 ;; Hardware stack levels required when called: 3
  3106 ;; This function calls:
  3107 ;;		Nothing
  3108 ;; This function is called by:
  3109 ;;		___flmul
  3110 ;; This function uses a non-reentrant model
  3111 ;;
  3112                           
  3113                           
  3114                           ;psect for function __Umul8_16
  3115  0AA9                     __Umul8_16:
  3116                           
  3117                           ;incstack = 0
  3118                           ; Regs used in __Umul8_16: [wreg+status,2+status,0]
  3119                           ;__Umul8_16@multiplier stored from wreg
  3120  0AA9  1283               	bcf	3,5	;RP0=0, select bank0
  3121  0AAA  1303               	bcf	3,6	;RP1=0, select bank0
  3122  0AAB  00B6               	movwf	__Umul8_16@multiplier
  3123  0AAC                     l1776:
  3124  0AAC  01B2               	clrf	__Umul8_16@product
  3125  0AAD  01B3               	clrf	__Umul8_16@product+1
  3126  0AAE                     l1778:
  3127  0AAE  082E               	movf	__Umul8_16@multiplicand,w
  3128  0AAF  00B0               	movwf	??__Umul8_16
  3129  0AB0  01B1               	clrf	??__Umul8_16+1
  3130  0AB1  0830               	movf	??__Umul8_16,w
  3131  0AB2  00B4               	movwf	__Umul8_16@word_mpld
  3132  0AB3  0831               	movf	??__Umul8_16+1,w
  3133  0AB4  00B5               	movwf	__Umul8_16@word_mpld+1
  3134  0AB5                     l1780:
  3135  0AB5  1C36               	btfss	__Umul8_16@multiplier,0
  3136  0AB6  2AB8               	goto	u2441
  3137  0AB7  2AB9               	goto	u2440
  3138  0AB8                     u2441:
  3139  0AB8  2ABF               	goto	l574
  3140  0AB9                     u2440:
  3141  0AB9                     l1782:
  3142  0AB9  0834               	movf	__Umul8_16@word_mpld,w
  3143  0ABA  07B2               	addwf	__Umul8_16@product,f
  3144  0ABB  1803               	skipnc
  3145  0ABC  0AB3               	incf	__Umul8_16@product+1,f
  3146  0ABD  0835               	movf	__Umul8_16@word_mpld+1,w
  3147  0ABE  07B3               	addwf	__Umul8_16@product+1,f
  3148  0ABF                     l574:
  3149  0ABF  3001               	movlw	1
  3150  0AC0                     u2455:
  3151  0AC0  1003               	clrc
  3152  0AC1  0DB4               	rlf	__Umul8_16@word_mpld,f
  3153  0AC2  0DB5               	rlf	__Umul8_16@word_mpld+1,f
  3154  0AC3  3EFF               	addlw	-1
  3155  0AC4  1D03               	skipz
  3156  0AC5  2AC0               	goto	u2455
  3157  0AC6  1003               	clrc
  3158  0AC7  0CB6               	rrf	__Umul8_16@multiplier,f
  3159  0AC8                     l1784:
  3160  0AC8  0836               	movf	__Umul8_16@multiplier,w
  3161  0AC9  1D03               	btfss	3,2
  3162  0ACA  2ACC               	goto	u2461
  3163  0ACB  2ACD               	goto	u2460
  3164  0ACC                     u2461:
  3165  0ACC  2AB5               	goto	l1780
  3166  0ACD                     u2460:
  3167  0ACD                     l1786:
  3168  0ACD  0833               	movf	__Umul8_16@product+1,w
  3169  0ACE  00AF               	movwf	?__Umul8_16+1
  3170  0ACF  0832               	movf	__Umul8_16@product,w
  3171  0AD0  00AE               	movwf	?__Umul8_16
  3172  0AD1                     l576:
  3173  0AD1  0008               	return
  3174  0AD2                     __end_of__Umul8_16:
  3175                           
  3176                           	psect	text6
  3177  074A                     __ptext6:	
  3178 ;; *************** function ___flge *****************
  3179 ;; Defined at:
  3180 ;;		line 4 in file "C:\Program Files\Microchip\xc8\v2.32\pic\sources\c90\common\flge.c"
  3181 ;; Parameters:    Size  Location     Type
  3182 ;;  ff1             4   14[BANK0 ] unsigned int 
  3183 ;;  ff2             4   18[BANK0 ] unsigned int 
  3184 ;; Auto vars:     Size  Location     Type
  3185 ;;		None
  3186 ;; Return value:  Size  Location     Type
  3187 ;;		None               void
  3188 ;; Registers used:
  3189 ;;		wreg, status,2, status,0
  3190 ;; Tracked objects:
  3191 ;;		On entry : 0/0
  3192 ;;		On exit  : 0/0
  3193 ;;		Unchanged: 0/0
  3194 ;; Data sizes:     COMMON   BANK0   BANK1   BANK3   BANK2
  3195 ;;      Params:         0       8       0       0       0
  3196 ;;      Locals:         0       0       0       0       0
  3197 ;;      Temps:          0       4       0       0       0
  3198 ;;      Totals:         0      12       0       0       0
  3199 ;;Total ram usage:       12 bytes
  3200 ;; Hardware stack levels used: 1
  3201 ;; Hardware stack levels required when called: 3
  3202 ;; This function calls:
  3203 ;;		Nothing
  3204 ;; This function is called by:
  3205 ;;		_main
  3206 ;; This function uses a non-reentrant model
  3207 ;;
  3208                           
  3209                           
  3210                           ;psect for function ___flge
  3211  074A                     ___flge:
  3212  074A                     l1350:	
  3213                           ;incstack = 0
  3214                           ; Regs used in ___flge: [wreg+status,2+status,0]
  3215                           
  3216  074A  3000               	movlw	0
  3217  074B  1283               	bcf	3,5	;RP0=0, select bank0
  3218  074C  1303               	bcf	3,6	;RP1=0, select bank0
  3219  074D  052E               	andwf	___flge@ff1,w
  3220  074E  00B6               	movwf	??___flge
  3221  074F  3000               	movlw	0
  3222  0750  052F               	andwf	___flge@ff1+1,w
  3223  0751  00B7               	movwf	??___flge+1
  3224  0752  3080               	movlw	128
  3225  0753  0530               	andwf	___flge@ff1+2,w
  3226  0754  00B8               	movwf	??___flge+2
  3227  0755  307F               	movlw	127
  3228  0756  0531               	andwf	___flge@ff1+3,w
  3229  0757  00B9               	movwf	??___flge+3
  3230  0758  0839               	movf	??___flge+3,w
  3231  0759  0438               	iorwf	??___flge+2,w
  3232  075A  0437               	iorwf	??___flge+1,w
  3233  075B  0436               	iorwf	??___flge,w
  3234  075C  1D03               	skipz
  3235  075D  2F5F               	goto	u1451
  3236  075E  2F60               	goto	u1450
  3237  075F                     u1451:
  3238  075F  2F68               	goto	l340
  3239  0760                     u1450:
  3240  0760                     l1352:
  3241  0760  3000               	movlw	0
  3242  0761  00B1               	movwf	___flge@ff1+3
  3243  0762  3000               	movlw	0
  3244  0763  00B0               	movwf	___flge@ff1+2
  3245  0764  3000               	movlw	0
  3246  0765  00AF               	movwf	___flge@ff1+1
  3247  0766  3000               	movlw	0
  3248  0767  00AE               	movwf	___flge@ff1
  3249  0768                     l340:
  3250  0768  3000               	movlw	0
  3251  0769  0532               	andwf	___flge@ff2,w
  3252  076A  00B6               	movwf	??___flge
  3253  076B  3000               	movlw	0
  3254  076C  0533               	andwf	___flge@ff2+1,w
  3255  076D  00B7               	movwf	??___flge+1
  3256  076E  3080               	movlw	128
  3257  076F  0534               	andwf	___flge@ff2+2,w
  3258  0770  00B8               	movwf	??___flge+2
  3259  0771  307F               	movlw	127
  3260  0772  0535               	andwf	___flge@ff2+3,w
  3261  0773  00B9               	movwf	??___flge+3
  3262  0774  0839               	movf	??___flge+3,w
  3263  0775  0438               	iorwf	??___flge+2,w
  3264  0776  0437               	iorwf	??___flge+1,w
  3265  0777  0436               	iorwf	??___flge,w
  3266  0778  1D03               	skipz
  3267  0779  2F7B               	goto	u1461
  3268  077A  2F7C               	goto	u1460
  3269  077B                     u1461:
  3270  077B  2F84               	goto	l1356
  3271  077C                     u1460:
  3272  077C                     l1354:
  3273  077C  3000               	movlw	0
  3274  077D  00B5               	movwf	___flge@ff2+3
  3275  077E  3000               	movlw	0
  3276  077F  00B4               	movwf	___flge@ff2+2
  3277  0780  3000               	movlw	0
  3278  0781  00B3               	movwf	___flge@ff2+1
  3279  0782  3000               	movlw	0
  3280  0783  00B2               	movwf	___flge@ff2
  3281  0784                     l1356:
  3282  0784  1FB1               	btfss	___flge@ff1+3,7
  3283  0785  2F87               	goto	u1471
  3284  0786  2F88               	goto	u1470
  3285  0787                     u1471:
  3286  0787  2FAC               	goto	l1360
  3287  0788                     u1470:
  3288  0788                     l1358:
  3289  0788  3000               	movlw	0
  3290  0789  00B6               	movwf	??___flge
  3291  078A  3000               	movlw	0
  3292  078B  00B7               	movwf	??___flge+1
  3293  078C  3000               	movlw	0
  3294  078D  00B8               	movwf	??___flge+2
  3295  078E  3080               	movlw	128
  3296  078F  00B9               	movwf	??___flge+3
  3297  0790  082E               	movf	___flge@ff1,w
  3298  0791  02B6               	subwf	??___flge,f
  3299  0792  082F               	movf	___flge@ff1+1,w
  3300  0793  1C03               	skipc
  3301  0794  0F2F               	incfsz	___flge@ff1+1,w
  3302  0795  2F97               	goto	u1481
  3303  0796  2F98               	goto	u1482
  3304  0797                     u1481:
  3305  0797  02B7               	subwf	??___flge+1,f
  3306  0798                     u1482:
  3307  0798  0830               	movf	___flge@ff1+2,w
  3308  0799  1C03               	skipc
  3309  079A  0F30               	incfsz	___flge@ff1+2,w
  3310  079B  2F9D               	goto	u1483
  3311  079C  2F9E               	goto	u1484
  3312  079D                     u1483:
  3313  079D  02B8               	subwf	??___flge+2,f
  3314  079E                     u1484:
  3315  079E  0831               	movf	___flge@ff1+3,w
  3316  079F  1C03               	skipc
  3317  07A0  0F31               	incfsz	___flge@ff1+3,w
  3318  07A1  2FA3               	goto	u1485
  3319  07A2  2FA4               	goto	u1486
  3320  07A3                     u1485:
  3321  07A3  02B9               	subwf	??___flge+3,f
  3322  07A4                     u1486:
  3323  07A4  0839               	movf	??___flge+3,w
  3324  07A5  00B1               	movwf	___flge@ff1+3
  3325  07A6  0838               	movf	??___flge+2,w
  3326  07A7  00B0               	movwf	___flge@ff1+2
  3327  07A8  0837               	movf	??___flge+1,w
  3328  07A9  00AF               	movwf	___flge@ff1+1
  3329  07AA  0836               	movf	??___flge,w
  3330  07AB  00AE               	movwf	___flge@ff1
  3331  07AC                     l1360:
  3332  07AC  1FB5               	btfss	___flge@ff2+3,7
  3333  07AD  2FAF               	goto	u1491
  3334  07AE  2FB0               	goto	u1490
  3335  07AF                     u1491:
  3336  07AF  2FD4               	goto	l343
  3337  07B0                     u1490:
  3338  07B0                     l1362:
  3339  07B0  3000               	movlw	0
  3340  07B1  00B6               	movwf	??___flge
  3341  07B2  3000               	movlw	0
  3342  07B3  00B7               	movwf	??___flge+1
  3343  07B4  3000               	movlw	0
  3344  07B5  00B8               	movwf	??___flge+2
  3345  07B6  3080               	movlw	128
  3346  07B7  00B9               	movwf	??___flge+3
  3347  07B8  0832               	movf	___flge@ff2,w
  3348  07B9  02B6               	subwf	??___flge,f
  3349  07BA  0833               	movf	___flge@ff2+1,w
  3350  07BB  1C03               	skipc
  3351  07BC  0F33               	incfsz	___flge@ff2+1,w
  3352  07BD  2FBF               	goto	u1501
  3353  07BE  2FC0               	goto	u1502
  3354  07BF                     u1501:
  3355  07BF  02B7               	subwf	??___flge+1,f
  3356  07C0                     u1502:
  3357  07C0  0834               	movf	___flge@ff2+2,w
  3358  07C1  1C03               	skipc
  3359  07C2  0F34               	incfsz	___flge@ff2+2,w
  3360  07C3  2FC5               	goto	u1503
  3361  07C4  2FC6               	goto	u1504
  3362  07C5                     u1503:
  3363  07C5  02B8               	subwf	??___flge+2,f
  3364  07C6                     u1504:
  3365  07C6  0835               	movf	___flge@ff2+3,w
  3366  07C7  1C03               	skipc
  3367  07C8  0F35               	incfsz	___flge@ff2+3,w
  3368  07C9  2FCB               	goto	u1505
  3369  07CA  2FCC               	goto	u1506
  3370  07CB                     u1505:
  3371  07CB  02B9               	subwf	??___flge+3,f
  3372  07CC                     u1506:
  3373  07CC  0839               	movf	??___flge+3,w
  3374  07CD  00B5               	movwf	___flge@ff2+3
  3375  07CE  0838               	movf	??___flge+2,w
  3376  07CF  00B4               	movwf	___flge@ff2+2
  3377  07D0  0837               	movf	??___flge+1,w
  3378  07D1  00B3               	movwf	___flge@ff2+1
  3379  07D2  0836               	movf	??___flge,w
  3380  07D3  00B2               	movwf	___flge@ff2
  3381  07D4                     l343:
  3382  07D4  3080               	movlw	128
  3383  07D5  06B1               	xorwf	___flge@ff1+3,f
  3384  07D6  3080               	movlw	128
  3385  07D7  06B5               	xorwf	___flge@ff2+3,f
  3386  07D8  0835               	movf	___flge@ff2+3,w
  3387  07D9  0231               	subwf	___flge@ff1+3,w
  3388  07DA  1D03               	skipz
  3389  07DB  2FE6               	goto	u1515
  3390  07DC  0834               	movf	___flge@ff2+2,w
  3391  07DD  0230               	subwf	___flge@ff1+2,w
  3392  07DE  1D03               	skipz
  3393  07DF  2FE6               	goto	u1515
  3394  07E0  0833               	movf	___flge@ff2+1,w
  3395  07E1  022F               	subwf	___flge@ff1+1,w
  3396  07E2  1D03               	skipz
  3397  07E3  2FE6               	goto	u1515
  3398  07E4  0832               	movf	___flge@ff2,w
  3399  07E5  022E               	subwf	___flge@ff1,w
  3400  07E6                     u1515:
  3401  07E6  1803               	skipnc
  3402  07E7  2FE9               	goto	u1511
  3403  07E8  2FEA               	goto	u1510
  3404  07E9                     u1511:
  3405  07E9  2FEC               	goto	l1366
  3406  07EA                     u1510:
  3407  07EA                     l1364:
  3408  07EA  1003               	clrc
  3409  07EB  2FED               	goto	l344
  3410  07EC                     l1366:
  3411  07EC  1403               	setc
  3412  07ED                     l344:
  3413  07ED  0008               	return
  3414  07EE                     __end_of___flge:
  3415                           
  3416                           	psect	text7
  3417  0D6B                     __ptext7:	
  3418 ;; *************** function ___fldiv *****************
  3419 ;; Defined at:
  3420 ;;		line 8 in file "C:\Program Files\Microchip\xc8\v2.32\pic\sources\c90\common\sprcdiv.c"
  3421 ;; Parameters:    Size  Location     Type
  3422 ;;  a               4   41[BANK0 ] unsigned int 
  3423 ;;  b               4   45[BANK0 ] unsigned int 
  3424 ;; Auto vars:     Size  Location     Type
  3425 ;;  grs             4   25[BANK1 ] unsigned long 
  3426 ;;  rem             4   18[BANK1 ] unsigned long 
  3427 ;;  new_exp         2   23[BANK1 ] int 
  3428 ;;  aexp            1   30[BANK1 ] unsigned char 
  3429 ;;  bexp            1   29[BANK1 ] unsigned char 
  3430 ;;  sign            1   22[BANK1 ] unsigned char 
  3431 ;; Return value:  Size  Location     Type
  3432 ;;                  4   41[BANK0 ] unsigned char 
  3433 ;; Registers used:
  3434 ;;		wreg, status,2, status,0, btemp+1
  3435 ;; Tracked objects:
  3436 ;;		On entry : 0/0
  3437 ;;		On exit  : 0/0
  3438 ;;		Unchanged: 0/0
  3439 ;; Data sizes:     COMMON   BANK0   BANK1   BANK3   BANK2
  3440 ;;      Params:         0       8       0       0       0
  3441 ;;      Locals:         0       0      13       0       0
  3442 ;;      Temps:          0       0       5       0       0
  3443 ;;      Totals:         0       8      18       0       0
  3444 ;;Total ram usage:       26 bytes
  3445 ;; Hardware stack levels used: 1
  3446 ;; Hardware stack levels required when called: 3
  3447 ;; This function calls:
  3448 ;;		Nothing
  3449 ;; This function is called by:
  3450 ;;		_main
  3451 ;; This function uses a non-reentrant model
  3452 ;;
  3453                           
  3454                           
  3455                           ;psect for function ___fldiv
  3456  0D6B                     ___fldiv:
  3457  0D6B                     l1406:	
  3458                           ;incstack = 0
  3459                           ; Regs used in ___fldiv: [wreg+status,2+status,0+btemp+1]
  3460                           
  3461  0D6B  1283               	bcf	3,5	;RP0=0, select bank0
  3462  0D6C  1303               	bcf	3,6	;RP1=0, select bank0
  3463  0D6D  0850               	movf	___fldiv@b+3,w
  3464  0D6E  3980               	andlw	128
  3465  0D6F  1683               	bsf	3,5	;RP0=1, select bank1
  3466  0D70  1303               	bcf	3,6	;RP1=0, select bank1
  3467  0D71  00AD               	movwf	??___fldiv^(0+128)
  3468  0D72  082D               	movf	??___fldiv^(0+128),w
  3469  0D73  00B6               	movwf	___fldiv@sign^(0+128)
  3470  0D74                     l1408:
  3471  0D74  1283               	bcf	3,5	;RP0=0, select bank0
  3472  0D75  1303               	bcf	3,6	;RP1=0, select bank0
  3473  0D76  0850               	movf	___fldiv@b+3,w
  3474  0D77  1683               	bsf	3,5	;RP0=1, select bank1
  3475  0D78  1303               	bcf	3,6	;RP1=0, select bank1
  3476  0D79  00AD               	movwf	??___fldiv^(0+128)
  3477  0D7A  072D               	addwf	??___fldiv^(0+128),w
  3478  0D7B  00AE               	movwf	(??___fldiv+1)^(0+128)
  3479  0D7C  082E               	movf	(??___fldiv+1)^(0+128),w
  3480  0D7D  00BD               	movwf	___fldiv@bexp^(0+128)
  3481  0D7E                     l1410:
  3482  0D7E  1283               	bcf	3,5	;RP0=0, select bank0
  3483  0D7F  1303               	bcf	3,6	;RP1=0, select bank0
  3484  0D80  1FCF               	btfss	___fldiv@b+2,7
  3485  0D81  2D83               	goto	u1621
  3486  0D82  2D84               	goto	u1620
  3487  0D83                     u1621:
  3488  0D83  2D87               	goto	l1414
  3489  0D84                     u1620:
  3490  0D84                     l1412:
  3491  0D84  1683               	bsf	3,5	;RP0=1, select bank1
  3492  0D85  1303               	bcf	3,6	;RP1=0, select bank1
  3493  0D86  143D               	bsf	___fldiv@bexp^(0+128),0
  3494  0D87                     l1414:
  3495  0D87  1683               	bsf	3,5	;RP0=1, select bank1
  3496  0D88  1303               	bcf	3,6	;RP1=0, select bank1
  3497  0D89  083D               	movf	___fldiv@bexp^(0+128),w
  3498  0D8A  1903               	btfsc	3,2
  3499  0D8B  2D8D               	goto	u1631
  3500  0D8C  2D8E               	goto	u1630
  3501  0D8D                     u1631:
  3502  0D8D  2DA1               	goto	l1424
  3503  0D8E                     u1630:
  3504  0D8E                     l1416:
  3505  0D8E  0A3D               	incf	___fldiv@bexp^(0+128),w
  3506  0D8F  1D03               	btfss	3,2
  3507  0D90  2D92               	goto	u1641
  3508  0D91  2D93               	goto	u1640
  3509  0D92                     u1641:
  3510  0D92  2D9D               	goto	l1420
  3511  0D93                     u1640:
  3512  0D93                     l1418:
  3513  0D93  3000               	movlw	0
  3514  0D94  1283               	bcf	3,5	;RP0=0, select bank0
  3515  0D95  1303               	bcf	3,6	;RP1=0, select bank0
  3516  0D96  00D0               	movwf	___fldiv@b+3
  3517  0D97  3000               	movlw	0
  3518  0D98  00CF               	movwf	___fldiv@b+2
  3519  0D99  3000               	movlw	0
  3520  0D9A  00CE               	movwf	___fldiv@b+1
  3521  0D9B  3000               	movlw	0
  3522  0D9C  00CD               	movwf	___fldiv@b
  3523  0D9D                     l1420:
  3524  0D9D  1283               	bcf	3,5	;RP0=0, select bank0
  3525  0D9E  17CF               	bsf	___fldiv@b+2,7
  3526  0D9F                     l1422:
  3527  0D9F  01D0               	clrf	___fldiv@b+3
  3528  0DA0  2DAB               	goto	l1426
  3529  0DA1                     l1424:
  3530  0DA1  3000               	movlw	0
  3531  0DA2  1283               	bcf	3,5	;RP0=0, select bank0
  3532  0DA3  1303               	bcf	3,6	;RP1=0, select bank0
  3533  0DA4  00D0               	movwf	___fldiv@b+3
  3534  0DA5  3000               	movlw	0
  3535  0DA6  00CF               	movwf	___fldiv@b+2
  3536  0DA7  3000               	movlw	0
  3537  0DA8  00CE               	movwf	___fldiv@b+1
  3538  0DA9  3000               	movlw	0
  3539  0DAA  00CD               	movwf	___fldiv@b
  3540  0DAB                     l1426:
  3541  0DAB  084C               	movf	___fldiv@a+3,w
  3542  0DAC  3980               	andlw	128
  3543  0DAD  1683               	bsf	3,5	;RP0=1, select bank1
  3544  0DAE  1303               	bcf	3,6	;RP1=0, select bank1
  3545  0DAF  00AD               	movwf	??___fldiv^(0+128)
  3546  0DB0  082D               	movf	??___fldiv^(0+128),w
  3547  0DB1  06B6               	xorwf	___fldiv@sign^(0+128),f
  3548  0DB2                     l1428:
  3549  0DB2  1283               	bcf	3,5	;RP0=0, select bank0
  3550  0DB3  1303               	bcf	3,6	;RP1=0, select bank0
  3551  0DB4  084C               	movf	___fldiv@a+3,w
  3552  0DB5  1683               	bsf	3,5	;RP0=1, select bank1
  3553  0DB6  1303               	bcf	3,6	;RP1=0, select bank1
  3554  0DB7  00AD               	movwf	??___fldiv^(0+128)
  3555  0DB8  072D               	addwf	??___fldiv^(0+128),w
  3556  0DB9  00AE               	movwf	(??___fldiv+1)^(0+128)
  3557  0DBA  082E               	movf	(??___fldiv+1)^(0+128),w
  3558  0DBB  00BE               	movwf	___fldiv@aexp^(0+128)
  3559  0DBC                     l1430:
  3560  0DBC  1283               	bcf	3,5	;RP0=0, select bank0
  3561  0DBD  1303               	bcf	3,6	;RP1=0, select bank0
  3562  0DBE  1FCB               	btfss	___fldiv@a+2,7
  3563  0DBF  2DC1               	goto	u1651
  3564  0DC0  2DC2               	goto	u1650
  3565  0DC1                     u1651:
  3566  0DC1  2DC5               	goto	l1434
  3567  0DC2                     u1650:
  3568  0DC2                     l1432:
  3569  0DC2  1683               	bsf	3,5	;RP0=1, select bank1
  3570  0DC3  1303               	bcf	3,6	;RP1=0, select bank1
  3571  0DC4  143E               	bsf	___fldiv@aexp^(0+128),0
  3572  0DC5                     l1434:
  3573  0DC5  1683               	bsf	3,5	;RP0=1, select bank1
  3574  0DC6  1303               	bcf	3,6	;RP1=0, select bank1
  3575  0DC7  083E               	movf	___fldiv@aexp^(0+128),w
  3576  0DC8  1903               	btfsc	3,2
  3577  0DC9  2DCB               	goto	u1661
  3578  0DCA  2DCC               	goto	u1660
  3579  0DCB                     u1661:
  3580  0DCB  2DDF               	goto	l1444
  3581  0DCC                     u1660:
  3582  0DCC                     l1436:
  3583  0DCC  0A3E               	incf	___fldiv@aexp^(0+128),w
  3584  0DCD  1D03               	btfss	3,2
  3585  0DCE  2DD0               	goto	u1671
  3586  0DCF  2DD1               	goto	u1670
  3587  0DD0                     u1671:
  3588  0DD0  2DDB               	goto	l1440
  3589  0DD1                     u1670:
  3590  0DD1                     l1438:
  3591  0DD1  3000               	movlw	0
  3592  0DD2  1283               	bcf	3,5	;RP0=0, select bank0
  3593  0DD3  1303               	bcf	3,6	;RP1=0, select bank0
  3594  0DD4  00CC               	movwf	___fldiv@a+3
  3595  0DD5  3000               	movlw	0
  3596  0DD6  00CB               	movwf	___fldiv@a+2
  3597  0DD7  3000               	movlw	0
  3598  0DD8  00CA               	movwf	___fldiv@a+1
  3599  0DD9  3000               	movlw	0
  3600  0DDA  00C9               	movwf	___fldiv@a
  3601  0DDB                     l1440:
  3602  0DDB  1283               	bcf	3,5	;RP0=0, select bank0
  3603  0DDC  17CB               	bsf	___fldiv@a+2,7
  3604  0DDD                     l1442:
  3605  0DDD  01CC               	clrf	___fldiv@a+3
  3606  0DDE  2DE9               	goto	l515
  3607  0DDF                     l1444:
  3608  0DDF  3000               	movlw	0
  3609  0DE0  1283               	bcf	3,5	;RP0=0, select bank0
  3610  0DE1  1303               	bcf	3,6	;RP1=0, select bank0
  3611  0DE2  00CC               	movwf	___fldiv@a+3
  3612  0DE3  3000               	movlw	0
  3613  0DE4  00CB               	movwf	___fldiv@a+2
  3614  0DE5  3000               	movlw	0
  3615  0DE6  00CA               	movwf	___fldiv@a+1
  3616  0DE7  3000               	movlw	0
  3617  0DE8  00C9               	movwf	___fldiv@a
  3618  0DE9                     l515:
  3619  0DE9  084C               	movf	___fldiv@a+3,w
  3620  0DEA  044B               	iorwf	___fldiv@a+2,w
  3621  0DEB  044A               	iorwf	___fldiv@a+1,w
  3622  0DEC  0449               	iorwf	___fldiv@a,w
  3623  0DED  1D03               	skipz
  3624  0DEE  2DF0               	goto	u1681
  3625  0DEF  2DF1               	goto	u1680
  3626  0DF0                     u1681:
  3627  0DF0  2E0E               	goto	l1454
  3628  0DF1                     u1680:
  3629  0DF1                     l1446:
  3630  0DF1  3000               	movlw	0
  3631  0DF2  00D0               	movwf	___fldiv@b+3
  3632  0DF3  3000               	movlw	0
  3633  0DF4  00CF               	movwf	___fldiv@b+2
  3634  0DF5  3000               	movlw	0
  3635  0DF6  00CE               	movwf	___fldiv@b+1
  3636  0DF7  3000               	movlw	0
  3637  0DF8  00CD               	movwf	___fldiv@b
  3638  0DF9  3080               	movlw	128
  3639  0DFA  04CF               	iorwf	___fldiv@b+2,f
  3640  0DFB  307F               	movlw	127
  3641  0DFC  04D0               	iorwf	___fldiv@b+3,f
  3642  0DFD                     l1448:
  3643  0DFD  1683               	bsf	3,5	;RP0=1, select bank1
  3644  0DFE  1303               	bcf	3,6	;RP1=0, select bank1
  3645  0DFF  0836               	movf	___fldiv@sign^(0+128),w
  3646  0E00  00AD               	movwf	??___fldiv^(0+128)
  3647  0E01  082D               	movf	??___fldiv^(0+128),w
  3648  0E02  1283               	bcf	3,5	;RP0=0, select bank0
  3649  0E03  1303               	bcf	3,6	;RP1=0, select bank0
  3650  0E04  04D0               	iorwf	___fldiv@b+3,f
  3651  0E05                     l1450:
  3652  0E05  0850               	movf	___fldiv@b+3,w
  3653  0E06  00CC               	movwf	?___fldiv+3
  3654  0E07  084F               	movf	___fldiv@b+2,w
  3655  0E08  00CB               	movwf	?___fldiv+2
  3656  0E09  084E               	movf	___fldiv@b+1,w
  3657  0E0A  00CA               	movwf	?___fldiv+1
  3658  0E0B  084D               	movf	___fldiv@b,w
  3659  0E0C  00C9               	movwf	?___fldiv
  3660  0E0D  2FFF               	goto	l517
  3661  0E0E                     l1454:
  3662  0E0E  1683               	bsf	3,5	;RP0=1, select bank1
  3663  0E0F  1303               	bcf	3,6	;RP1=0, select bank1
  3664  0E10  083D               	movf	___fldiv@bexp^(0+128),w
  3665  0E11  1D03               	btfss	3,2
  3666  0E12  2E14               	goto	u1691
  3667  0E13  2E15               	goto	u1690
  3668  0E14                     u1691:
  3669  0E14  2E20               	goto	l1460
  3670  0E15                     u1690:
  3671  0E15                     l1456:
  3672  0E15  3000               	movlw	0
  3673  0E16  1283               	bcf	3,5	;RP0=0, select bank0
  3674  0E17  1303               	bcf	3,6	;RP1=0, select bank0
  3675  0E18  00CC               	movwf	?___fldiv+3
  3676  0E19  3000               	movlw	0
  3677  0E1A  00CB               	movwf	?___fldiv+2
  3678  0E1B  3000               	movlw	0
  3679  0E1C  00CA               	movwf	?___fldiv+1
  3680  0E1D  3000               	movlw	0
  3681  0E1E  00C9               	movwf	?___fldiv
  3682  0E1F  2FFF               	goto	l517
  3683  0E20                     l1460:
  3684  0E20  083D               	movf	___fldiv@bexp^(0+128),w
  3685  0E21  00AD               	movwf	??___fldiv^(0+128)
  3686  0E22  01AE               	clrf	(??___fldiv^(0+128)+1)
  3687  0E23  082E               	movf	(??___fldiv+1)^(0+128),w
  3688  0E24  00B0               	movwf	((??___fldiv+2)^(0+128)+1)
  3689  0E25  083E               	movf	___fldiv@aexp^(0+128),w
  3690  0E26  022D               	subwf	??___fldiv^(0+128),w
  3691  0E27  00AF               	movwf	(??___fldiv+2)^(0+128)
  3692  0E28  1C03               	skipc
  3693  0E29  03B0               	decf	((??___fldiv+2)^(0+128)+1),f
  3694  0E2A  082F               	movf	(??___fldiv+2)^(0+128),w
  3695  0E2B  3E7F               	addlw	127
  3696  0E2C  00B7               	movwf	___fldiv@new_exp^(0+128)
  3697  0E2D  0830               	movf	(??___fldiv+3)^(0+128),w
  3698  0E2E  1803               	skipnc
  3699  0E2F  3E01               	addlw	1
  3700  0E30  3E00               	addlw	0
  3701  0E31  00B8               	movwf	(___fldiv@new_exp+1)^(0+128)
  3702  0E32                     l1462:
  3703  0E32  1283               	bcf	3,5	;RP0=0, select bank0
  3704  0E33  1303               	bcf	3,6	;RP1=0, select bank0
  3705  0E34  0850               	movf	___fldiv@b+3,w
  3706  0E35  1683               	bsf	3,5	;RP0=1, select bank1
  3707  0E36  1303               	bcf	3,6	;RP1=0, select bank1
  3708  0E37  00B5               	movwf	(___fldiv@rem+3)^(0+128)
  3709  0E38  1283               	bcf	3,5	;RP0=0, select bank0
  3710  0E39  1303               	bcf	3,6	;RP1=0, select bank0
  3711  0E3A  084F               	movf	___fldiv@b+2,w
  3712  0E3B  1683               	bsf	3,5	;RP0=1, select bank1
  3713  0E3C  1303               	bcf	3,6	;RP1=0, select bank1
  3714  0E3D  00B4               	movwf	(___fldiv@rem+2)^(0+128)
  3715  0E3E  1283               	bcf	3,5	;RP0=0, select bank0
  3716  0E3F  1303               	bcf	3,6	;RP1=0, select bank0
  3717  0E40  084E               	movf	___fldiv@b+1,w
  3718  0E41  1683               	bsf	3,5	;RP0=1, select bank1
  3719  0E42  1303               	bcf	3,6	;RP1=0, select bank1
  3720  0E43  00B3               	movwf	(___fldiv@rem+1)^(0+128)
  3721  0E44  1283               	bcf	3,5	;RP0=0, select bank0
  3722  0E45  1303               	bcf	3,6	;RP1=0, select bank0
  3723  0E46  084D               	movf	___fldiv@b,w
  3724  0E47  1683               	bsf	3,5	;RP0=1, select bank1
  3725  0E48  1303               	bcf	3,6	;RP1=0, select bank1
  3726  0E49  00B2               	movwf	___fldiv@rem^(0+128)
  3727  0E4A                     l1464:
  3728  0E4A  3000               	movlw	0
  3729  0E4B  1283               	bcf	3,5	;RP0=0, select bank0
  3730  0E4C  1303               	bcf	3,6	;RP1=0, select bank0
  3731  0E4D  00D0               	movwf	___fldiv@b+3
  3732  0E4E  3000               	movlw	0
  3733  0E4F  00CF               	movwf	___fldiv@b+2
  3734  0E50  3000               	movlw	0
  3735  0E51  00CE               	movwf	___fldiv@b+1
  3736  0E52  3000               	movlw	0
  3737  0E53  00CD               	movwf	___fldiv@b
  3738  0E54                     l1466:
  3739  0E54  3000               	movlw	0
  3740  0E55  1683               	bsf	3,5	;RP0=1, select bank1
  3741  0E56  1303               	bcf	3,6	;RP1=0, select bank1
  3742  0E57  00BC               	movwf	(___fldiv@grs+3)^(0+128)
  3743  0E58  3000               	movlw	0
  3744  0E59  00BB               	movwf	(___fldiv@grs+2)^(0+128)
  3745  0E5A  3000               	movlw	0
  3746  0E5B  00BA               	movwf	(___fldiv@grs+1)^(0+128)
  3747  0E5C  3000               	movlw	0
  3748  0E5D  00B9               	movwf	___fldiv@grs^(0+128)
  3749  0E5E                     l1468:
  3750  0E5E  01BE               	clrf	___fldiv@aexp^(0+128)
  3751  0E5F  2EDC               	goto	l1488
  3752  0E60                     l1470:
  3753  0E60  083E               	movf	___fldiv@aexp^(0+128),w
  3754  0E61  1903               	btfsc	3,2
  3755  0E62  2E64               	goto	u1701
  3756  0E63  2E65               	goto	u1700
  3757  0E64                     u1701:
  3758  0E64  2E8D               	goto	l1480
  3759  0E65                     u1700:
  3760  0E65                     l1472:
  3761  0E65  3001               	movlw	1
  3762  0E66  00AD               	movwf	??___fldiv^(0+128)
  3763  0E67                     u1715:
  3764  0E67  1003               	clrc
  3765  0E68  0DB2               	rlf	___fldiv@rem^(0+128),f
  3766  0E69  0DB3               	rlf	(___fldiv@rem+1)^(0+128),f
  3767  0E6A  0DB4               	rlf	(___fldiv@rem+2)^(0+128),f
  3768  0E6B  0DB5               	rlf	(___fldiv@rem+3)^(0+128),f
  3769  0E6C  0BAD               	decfsz	??___fldiv^(0+128),f
  3770  0E6D  2E67               	goto	u1715
  3771  0E6E  3001               	movlw	1
  3772  0E6F  00AD               	movwf	??___fldiv^(0+128)
  3773  0E70                     u1725:
  3774  0E70  1003               	clrc
  3775  0E71  1283               	bcf	3,5	;RP0=0, select bank0
  3776  0E72  1303               	bcf	3,6	;RP1=0, select bank0
  3777  0E73  0DCD               	rlf	___fldiv@b,f
  3778  0E74  0DCE               	rlf	___fldiv@b+1,f
  3779  0E75  0DCF               	rlf	___fldiv@b+2,f
  3780  0E76  0DD0               	rlf	___fldiv@b+3,f
  3781  0E77  1683               	bsf	3,5	;RP0=1, select bank1
  3782  0E78  1303               	bcf	3,6	;RP1=0, select bank1
  3783  0E79  0BAD               	decfsz	??___fldiv^(0+128),f
  3784  0E7A  2E70               	goto	u1725
  3785  0E7B                     l1474:
  3786  0E7B  1FBC               	btfss	(___fldiv@grs+3)^(0+128),7
  3787  0E7C  2E7E               	goto	u1731
  3788  0E7D  2E7F               	goto	u1730
  3789  0E7E                     u1731:
  3790  0E7E  2E82               	goto	l1478
  3791  0E7F                     u1730:
  3792  0E7F                     l1476:
  3793  0E7F  1283               	bcf	3,5	;RP0=0, select bank0
  3794  0E80  1303               	bcf	3,6	;RP1=0, select bank0
  3795  0E81  144D               	bsf	___fldiv@b,0
  3796  0E82                     l1478:
  3797  0E82  3001               	movlw	1
  3798  0E83  1683               	bsf	3,5	;RP0=1, select bank1
  3799  0E84  1303               	bcf	3,6	;RP1=0, select bank1
  3800  0E85  00AD               	movwf	??___fldiv^(0+128)
  3801  0E86                     u1745:
  3802  0E86  1003               	clrc
  3803  0E87  0DB9               	rlf	___fldiv@grs^(0+128),f
  3804  0E88  0DBA               	rlf	(___fldiv@grs+1)^(0+128),f
  3805  0E89  0DBB               	rlf	(___fldiv@grs+2)^(0+128),f
  3806  0E8A  0DBC               	rlf	(___fldiv@grs+3)^(0+128),f
  3807  0E8B  0BAD               	decfsz	??___fldiv^(0+128),f
  3808  0E8C  2E86               	goto	u1745
  3809  0E8D                     l1480:
  3810  0E8D  1283               	bcf	3,5	;RP0=0, select bank0
  3811  0E8E  1303               	bcf	3,6	;RP1=0, select bank0
  3812  0E8F  084C               	movf	___fldiv@a+3,w
  3813  0E90  1683               	bsf	3,5	;RP0=1, select bank1
  3814  0E91  1303               	bcf	3,6	;RP1=0, select bank1
  3815  0E92  0235               	subwf	(___fldiv@rem+3)^(0+128),w
  3816  0E93  1D03               	skipz
  3817  0E94  2EAB               	goto	u1755
  3818  0E95  1283               	bcf	3,5	;RP0=0, select bank0
  3819  0E96  1303               	bcf	3,6	;RP1=0, select bank0
  3820  0E97  084B               	movf	___fldiv@a+2,w
  3821  0E98  1683               	bsf	3,5	;RP0=1, select bank1
  3822  0E99  1303               	bcf	3,6	;RP1=0, select bank1
  3823  0E9A  0234               	subwf	(___fldiv@rem+2)^(0+128),w
  3824  0E9B  1D03               	skipz
  3825  0E9C  2EAB               	goto	u1755
  3826  0E9D  1283               	bcf	3,5	;RP0=0, select bank0
  3827  0E9E  1303               	bcf	3,6	;RP1=0, select bank0
  3828  0E9F  084A               	movf	___fldiv@a+1,w
  3829  0EA0  1683               	bsf	3,5	;RP0=1, select bank1
  3830  0EA1  1303               	bcf	3,6	;RP1=0, select bank1
  3831  0EA2  0233               	subwf	(___fldiv@rem+1)^(0+128),w
  3832  0EA3  1D03               	skipz
  3833  0EA4  2EAB               	goto	u1755
  3834  0EA5  1283               	bcf	3,5	;RP0=0, select bank0
  3835  0EA6  1303               	bcf	3,6	;RP1=0, select bank0
  3836  0EA7  0849               	movf	___fldiv@a,w
  3837  0EA8  1683               	bsf	3,5	;RP0=1, select bank1
  3838  0EA9  1303               	bcf	3,6	;RP1=0, select bank1
  3839  0EAA  0232               	subwf	___fldiv@rem^(0+128),w
  3840  0EAB                     u1755:
  3841  0EAB  1C03               	skipc
  3842  0EAC  2EAE               	goto	u1751
  3843  0EAD  2EAF               	goto	u1750
  3844  0EAE                     u1751:
  3845  0EAE  2ED8               	goto	l1486
  3846  0EAF                     u1750:
  3847  0EAF                     l1482:
  3848  0EAF  173C               	bsf	(___fldiv@grs^(0+128)+3),6
  3849  0EB0                     l1484:
  3850  0EB0  1283               	bcf	3,5	;RP0=0, select bank0
  3851  0EB1  1303               	bcf	3,6	;RP1=0, select bank0
  3852  0EB2  0849               	movf	___fldiv@a,w
  3853  0EB3  1683               	bsf	3,5	;RP0=1, select bank1
  3854  0EB4  1303               	bcf	3,6	;RP1=0, select bank1
  3855  0EB5  02B2               	subwf	___fldiv@rem^(0+128),f
  3856  0EB6  1283               	bcf	3,5	;RP0=0, select bank0
  3857  0EB7  1303               	bcf	3,6	;RP1=0, select bank0
  3858  0EB8  084A               	movf	___fldiv@a+1,w
  3859  0EB9  1C03               	skipc
  3860  0EBA  0F4A               	incfsz	___fldiv@a+1,w
  3861  0EBB  2EBD               	goto	u1765
  3862  0EBC  2EC0               	goto	u1766
  3863  0EBD                     u1765:
  3864  0EBD  1683               	bsf	3,5	;RP0=1, select bank1
  3865  0EBE  1303               	bcf	3,6	;RP1=0, select bank1
  3866  0EBF  02B3               	subwf	(___fldiv@rem+1)^(0+128),f
  3867  0EC0                     u1766:
  3868  0EC0  1283               	bcf	3,5	;RP0=0, select bank0
  3869  0EC1  1303               	bcf	3,6	;RP1=0, select bank0
  3870  0EC2  084B               	movf	___fldiv@a+2,w
  3871  0EC3  1C03               	skipc
  3872  0EC4  0F4B               	incfsz	___fldiv@a+2,w
  3873  0EC5  2EC7               	goto	u1767
  3874  0EC6  2ECA               	goto	u1768
  3875  0EC7                     u1767:
  3876  0EC7  1683               	bsf	3,5	;RP0=1, select bank1
  3877  0EC8  1303               	bcf	3,6	;RP1=0, select bank1
  3878  0EC9  02B4               	subwf	(___fldiv@rem+2)^(0+128),f
  3879  0ECA                     u1768:
  3880  0ECA  1283               	bcf	3,5	;RP0=0, select bank0
  3881  0ECB  1303               	bcf	3,6	;RP1=0, select bank0
  3882  0ECC  084C               	movf	___fldiv@a+3,w
  3883  0ECD  1C03               	skipc
  3884  0ECE  0F4C               	incfsz	___fldiv@a+3,w
  3885  0ECF  2ED1               	goto	u1769
  3886  0ED0  2ED4               	goto	u1760
  3887  0ED1                     u1769:
  3888  0ED1  1683               	bsf	3,5	;RP0=1, select bank1
  3889  0ED2  1303               	bcf	3,6	;RP1=0, select bank1
  3890  0ED3  02B5               	subwf	(___fldiv@rem+3)^(0+128),f
  3891  0ED4                     u1760:
  3892  0ED4  1283               	bcf	3,5	;RP0=0, select bank0
  3893  0ED5  1303               	bcf	3,6	;RP1=0, select bank0
  3894  0ED6  1683               	bsf	3,5	;RP0=1, select bank1
  3895  0ED7  1303               	bcf	3,6	;RP1=0, select bank1
  3896  0ED8                     l1486:
  3897  0ED8  3001               	movlw	1
  3898  0ED9  00AD               	movwf	??___fldiv^(0+128)
  3899  0EDA  082D               	movf	??___fldiv^(0+128),w
  3900  0EDB  07BE               	addwf	___fldiv@aexp^(0+128),f
  3901  0EDC                     l1488:
  3902  0EDC  301A               	movlw	26
  3903  0EDD  023E               	subwf	___fldiv@aexp^(0+128),w
  3904  0EDE  1C03               	skipc
  3905  0EDF  2EE1               	goto	u1771
  3906  0EE0  2EE2               	goto	u1770
  3907  0EE1                     u1771:
  3908  0EE1  2E60               	goto	l1470
  3909  0EE2                     u1770:
  3910  0EE2                     l1490:
  3911  0EE2  0835               	movf	(___fldiv@rem+3)^(0+128),w
  3912  0EE3  0434               	iorwf	(___fldiv@rem+2)^(0+128),w
  3913  0EE4  0433               	iorwf	(___fldiv@rem+1)^(0+128),w
  3914  0EE5  0432               	iorwf	___fldiv@rem^(0+128),w
  3915  0EE6  1903               	skipnz
  3916  0EE7  2EE9               	goto	u1781
  3917  0EE8  2EEA               	goto	u1780
  3918  0EE9                     u1781:
  3919  0EE9  2F13               	goto	l1504
  3920  0EEA                     u1780:
  3921  0EEA                     l1492:
  3922  0EEA  1439               	bsf	___fldiv@grs^(0+128),0
  3923  0EEB  2F13               	goto	l1504
  3924  0EEC                     l1494:
  3925  0EEC  3001               	movlw	1
  3926  0EED  1683               	bsf	3,5	;RP0=1, select bank1
  3927  0EEE  1303               	bcf	3,6	;RP1=0, select bank1
  3928  0EEF  00AD               	movwf	??___fldiv^(0+128)
  3929  0EF0                     u1795:
  3930  0EF0  1003               	clrc
  3931  0EF1  1283               	bcf	3,5	;RP0=0, select bank0
  3932  0EF2  1303               	bcf	3,6	;RP1=0, select bank0
  3933  0EF3  0DCD               	rlf	___fldiv@b,f
  3934  0EF4  0DCE               	rlf	___fldiv@b+1,f
  3935  0EF5  0DCF               	rlf	___fldiv@b+2,f
  3936  0EF6  0DD0               	rlf	___fldiv@b+3,f
  3937  0EF7  1683               	bsf	3,5	;RP0=1, select bank1
  3938  0EF8  1303               	bcf	3,6	;RP1=0, select bank1
  3939  0EF9  0BAD               	decfsz	??___fldiv^(0+128),f
  3940  0EFA  2EF0               	goto	u1795
  3941  0EFB                     l1496:
  3942  0EFB  1FBC               	btfss	(___fldiv@grs+3)^(0+128),7
  3943  0EFC  2EFE               	goto	u1801
  3944  0EFD  2EFF               	goto	u1800
  3945  0EFE                     u1801:
  3946  0EFE  2F02               	goto	l1500
  3947  0EFF                     u1800:
  3948  0EFF                     l1498:
  3949  0EFF  1283               	bcf	3,5	;RP0=0, select bank0
  3950  0F00  1303               	bcf	3,6	;RP1=0, select bank0
  3951  0F01  144D               	bsf	___fldiv@b,0
  3952  0F02                     l1500:
  3953  0F02  3001               	movlw	1
  3954  0F03  1683               	bsf	3,5	;RP0=1, select bank1
  3955  0F04  1303               	bcf	3,6	;RP1=0, select bank1
  3956  0F05  00AD               	movwf	??___fldiv^(0+128)
  3957  0F06                     u1815:
  3958  0F06  1003               	clrc
  3959  0F07  0DB9               	rlf	___fldiv@grs^(0+128),f
  3960  0F08  0DBA               	rlf	(___fldiv@grs+1)^(0+128),f
  3961  0F09  0DBB               	rlf	(___fldiv@grs+2)^(0+128),f
  3962  0F0A  0DBC               	rlf	(___fldiv@grs+3)^(0+128),f
  3963  0F0B  0BAD               	decfsz	??___fldiv^(0+128),f
  3964  0F0C  2F06               	goto	u1815
  3965  0F0D                     l1502:
  3966  0F0D  30FF               	movlw	255
  3967  0F0E  07B7               	addwf	___fldiv@new_exp^(0+128),f
  3968  0F0F  1803               	skipnc
  3969  0F10  0AB8               	incf	(___fldiv@new_exp+1)^(0+128),f
  3970  0F11  30FF               	movlw	255
  3971  0F12  07B8               	addwf	(___fldiv@new_exp+1)^(0+128),f
  3972  0F13                     l1504:
  3973  0F13  1283               	bcf	3,5	;RP0=0, select bank0
  3974  0F14  1303               	bcf	3,6	;RP1=0, select bank0
  3975  0F15  1FCF               	btfss	___fldiv@b+2,7
  3976  0F16  2F18               	goto	u1821
  3977  0F17  2F19               	goto	u1820
  3978  0F18                     u1821:
  3979  0F18  2EEC               	goto	l1494
  3980  0F19                     u1820:
  3981  0F19                     l1506:
  3982  0F19  1683               	bsf	3,5	;RP0=1, select bank1
  3983  0F1A  1303               	bcf	3,6	;RP1=0, select bank1
  3984  0F1B  01BE               	clrf	___fldiv@aexp^(0+128)
  3985  0F1C                     l1508:
  3986  0F1C  1FBC               	btfss	(___fldiv@grs+3)^(0+128),7
  3987  0F1D  2F1F               	goto	u1831
  3988  0F1E  2F20               	goto	u1830
  3989  0F1F                     u1831:
  3990  0F1F  2F40               	goto	l1516
  3991  0F20                     u1830:
  3992  0F20                     l1510:
  3993  0F20  30FF               	movlw	255
  3994  0F21  0539               	andwf	___fldiv@grs^(0+128),w
  3995  0F22  00AD               	movwf	??___fldiv^(0+128)
  3996  0F23  30FF               	movlw	255
  3997  0F24  053A               	andwf	(___fldiv@grs+1)^(0+128),w
  3998  0F25  00AE               	movwf	(??___fldiv^(0+128)+1)
  3999  0F26  30FF               	movlw	255
  4000  0F27  053B               	andwf	(___fldiv@grs+2)^(0+128),w
  4001  0F28  00AF               	movwf	(??___fldiv^(0+128)+2)
  4002  0F29  307F               	movlw	127
  4003  0F2A  053C               	andwf	(___fldiv@grs+3)^(0+128),w
  4004  0F2B  00B0               	movwf	(??___fldiv^(0+128)+3)
  4005  0F2C  0830               	movf	(??___fldiv+3)^(0+128),w
  4006  0F2D  042F               	iorwf	(??___fldiv+2)^(0+128),w
  4007  0F2E  042E               	iorwf	(??___fldiv+1)^(0+128),w
  4008  0F2F  042D               	iorwf	??___fldiv^(0+128),w
  4009  0F30  1903               	skipnz
  4010  0F31  2F33               	goto	u1841
  4011  0F32  2F34               	goto	u1840
  4012  0F33                     u1841:
  4013  0F33  2F39               	goto	l531
  4014  0F34                     u1840:
  4015  0F34                     l1512:
  4016  0F34  1683               	bsf	3,5	;RP0=1, select bank1
  4017  0F35  1303               	bcf	3,6	;RP1=0, select bank1
  4018  0F36  01BE               	clrf	___fldiv@aexp^(0+128)
  4019  0F37  0ABE               	incf	___fldiv@aexp^(0+128),f
  4020  0F38  2F40               	goto	l1516
  4021  0F39                     l531:
  4022  0F39  1283               	bcf	3,5	;RP0=0, select bank0
  4023  0F3A  1303               	bcf	3,6	;RP1=0, select bank0
  4024  0F3B  1C4D               	btfss	___fldiv@b,0
  4025  0F3C  2F3E               	goto	u1851
  4026  0F3D  2F3F               	goto	u1850
  4027  0F3E                     u1851:
  4028  0F3E  2F40               	goto	l1516
  4029  0F3F                     u1850:
  4030  0F3F  2F34               	goto	l1512
  4031  0F40                     l1516:
  4032  0F40  1683               	bsf	3,5	;RP0=1, select bank1
  4033  0F41  1303               	bcf	3,6	;RP1=0, select bank1
  4034  0F42  083E               	movf	___fldiv@aexp^(0+128),w
  4035  0F43  1903               	btfsc	3,2
  4036  0F44  2F46               	goto	u1861
  4037  0F45  2F47               	goto	u1860
  4038  0F46                     u1861:
  4039  0F46  2F98               	goto	l1526
  4040  0F47                     u1860:
  4041  0F47                     l1518:
  4042  0F47  3001               	movlw	1
  4043  0F48  1283               	bcf	3,5	;RP0=0, select bank0
  4044  0F49  1303               	bcf	3,6	;RP1=0, select bank0
  4045  0F4A  07CD               	addwf	___fldiv@b,f
  4046  0F4B  3000               	movlw	0
  4047  0F4C  1803               	skipnc
  4048  0F4D  3001               	movlw	1
  4049  0F4E  07CE               	addwf	___fldiv@b+1,f
  4050  0F4F  3000               	movlw	0
  4051  0F50  1803               	skipnc
  4052  0F51  3001               	movlw	1
  4053  0F52  07CF               	addwf	___fldiv@b+2,f
  4054  0F53  3000               	movlw	0
  4055  0F54  1803               	skipnc
  4056  0F55  3001               	movlw	1
  4057  0F56  07D0               	addwf	___fldiv@b+3,f
  4058  0F57                     l1520:
  4059  0F57  1C50               	btfss	___fldiv@b+3,0
  4060  0F58  2F5A               	goto	u1871
  4061  0F59  2F5B               	goto	u1870
  4062  0F5A                     u1871:
  4063  0F5A  2F98               	goto	l1526
  4064  0F5B                     u1870:
  4065  0F5B                     l1522:
  4066  0F5B  084D               	movf	___fldiv@b,w
  4067  0F5C  1683               	bsf	3,5	;RP0=1, select bank1
  4068  0F5D  1303               	bcf	3,6	;RP1=0, select bank1
  4069  0F5E  00AD               	movwf	??___fldiv^(0+128)
  4070  0F5F  1283               	bcf	3,5	;RP0=0, select bank0
  4071  0F60  1303               	bcf	3,6	;RP1=0, select bank0
  4072  0F61  084E               	movf	___fldiv@b+1,w
  4073  0F62  1683               	bsf	3,5	;RP0=1, select bank1
  4074  0F63  1303               	bcf	3,6	;RP1=0, select bank1
  4075  0F64  00AE               	movwf	(??___fldiv^(0+128)+1)
  4076  0F65  1283               	bcf	3,5	;RP0=0, select bank0
  4077  0F66  1303               	bcf	3,6	;RP1=0, select bank0
  4078  0F67  084F               	movf	___fldiv@b+2,w
  4079  0F68  1683               	bsf	3,5	;RP0=1, select bank1
  4080  0F69  1303               	bcf	3,6	;RP1=0, select bank1
  4081  0F6A  00AF               	movwf	(??___fldiv^(0+128)+2)
  4082  0F6B  1283               	bcf	3,5	;RP0=0, select bank0
  4083  0F6C  1303               	bcf	3,6	;RP1=0, select bank0
  4084  0F6D  0850               	movf	___fldiv@b+3,w
  4085  0F6E  1683               	bsf	3,5	;RP0=1, select bank1
  4086  0F6F  1303               	bcf	3,6	;RP1=0, select bank1
  4087  0F70  00B0               	movwf	(??___fldiv^(0+128)+3)
  4088  0F71  3001               	movlw	1
  4089  0F72  00B1               	movwf	(??___fldiv+4)^(0+128)
  4090  0F73                     u1885:
  4091  0F73  0D30               	rlf	(??___fldiv^(0+128)+3),w
  4092  0F74  0CB0               	rrf	(??___fldiv^(0+128)+3),f
  4093  0F75  0CAF               	rrf	(??___fldiv^(0+128)+2),f
  4094  0F76  0CAE               	rrf	(??___fldiv^(0+128)+1),f
  4095  0F77  0CAD               	rrf	??___fldiv^(0+128),f
  4096  0F78                     u1880:
  4097  0F78  0BB1               	decfsz	(??___fldiv+4)^(0+128),f
  4098  0F79  2F73               	goto	u1885
  4099  0F7A  0830               	movf	(??___fldiv+3)^(0+128),w
  4100  0F7B  1283               	bcf	3,5	;RP0=0, select bank0
  4101  0F7C  1303               	bcf	3,6	;RP1=0, select bank0
  4102  0F7D  00D0               	movwf	___fldiv@b+3
  4103  0F7E  1683               	bsf	3,5	;RP0=1, select bank1
  4104  0F7F  1303               	bcf	3,6	;RP1=0, select bank1
  4105  0F80  082F               	movf	(??___fldiv+2)^(0+128),w
  4106  0F81  1283               	bcf	3,5	;RP0=0, select bank0
  4107  0F82  1303               	bcf	3,6	;RP1=0, select bank0
  4108  0F83  00CF               	movwf	___fldiv@b+2
  4109  0F84  1683               	bsf	3,5	;RP0=1, select bank1
  4110  0F85  1303               	bcf	3,6	;RP1=0, select bank1
  4111  0F86  082E               	movf	(??___fldiv+1)^(0+128),w
  4112  0F87  1283               	bcf	3,5	;RP0=0, select bank0
  4113  0F88  1303               	bcf	3,6	;RP1=0, select bank0
  4114  0F89  00CE               	movwf	___fldiv@b+1
  4115  0F8A  1683               	bsf	3,5	;RP0=1, select bank1
  4116  0F8B  1303               	bcf	3,6	;RP1=0, select bank1
  4117  0F8C  082D               	movf	??___fldiv^(0+128),w
  4118  0F8D  1283               	bcf	3,5	;RP0=0, select bank0
  4119  0F8E  1303               	bcf	3,6	;RP1=0, select bank0
  4120  0F8F  00CD               	movwf	___fldiv@b
  4121  0F90                     l1524:
  4122  0F90  3001               	movlw	1
  4123  0F91  1683               	bsf	3,5	;RP0=1, select bank1
  4124  0F92  1303               	bcf	3,6	;RP1=0, select bank1
  4125  0F93  07B7               	addwf	___fldiv@new_exp^(0+128),f
  4126  0F94  1803               	skipnc
  4127  0F95  0AB8               	incf	(___fldiv@new_exp+1)^(0+128),f
  4128  0F96  3000               	movlw	0
  4129  0F97  07B8               	addwf	(___fldiv@new_exp+1)^(0+128),f
  4130  0F98                     l1526:
  4131  0F98  1683               	bsf	3,5	;RP0=1, select bank1
  4132  0F99  1303               	bcf	3,6	;RP1=0, select bank1
  4133  0F9A  0838               	movf	(___fldiv@new_exp+1)^(0+128),w
  4134  0F9B  3A80               	xorlw	128
  4135  0F9C  00FF               	movwf	btemp+1
  4136  0F9D  3080               	movlw	128
  4137  0F9E  027F               	subwf	btemp+1,w
  4138  0F9F  1D03               	skipz
  4139  0FA0  2FA3               	goto	u1895
  4140  0FA1  30FF               	movlw	255
  4141  0FA2  0237               	subwf	___fldiv@new_exp^(0+128),w
  4142  0FA3                     u1895:
  4143  0FA3  1C03               	skipc
  4144  0FA4  2FA6               	goto	u1891
  4145  0FA5  2FA7               	goto	u1890
  4146  0FA6                     u1891:
  4147  0FA6  2FB7               	goto	l1530
  4148  0FA7                     u1890:
  4149  0FA7                     l1528:
  4150  0FA7  30FF               	movlw	255
  4151  0FA8  1683               	bsf	3,5	;RP0=1, select bank1
  4152  0FA9  1303               	bcf	3,6	;RP1=0, select bank1
  4153  0FAA  00B7               	movwf	___fldiv@new_exp^(0+128)
  4154  0FAB  3000               	movlw	0
  4155  0FAC  00B8               	movwf	(___fldiv@new_exp^(0+128)+1)
  4156  0FAD  3000               	movlw	0
  4157  0FAE  1283               	bcf	3,5	;RP0=0, select bank0
  4158  0FAF  1303               	bcf	3,6	;RP1=0, select bank0
  4159  0FB0  00D0               	movwf	___fldiv@b+3
  4160  0FB1  3000               	movlw	0
  4161  0FB2  00CF               	movwf	___fldiv@b+2
  4162  0FB3  3000               	movlw	0
  4163  0FB4  00CE               	movwf	___fldiv@b+1
  4164  0FB5  3000               	movlw	0
  4165  0FB6  00CD               	movwf	___fldiv@b
  4166  0FB7                     l1530:
  4167  0FB7  1683               	bsf	3,5	;RP0=1, select bank1
  4168  0FB8  1303               	bcf	3,6	;RP1=0, select bank1
  4169  0FB9  0838               	movf	(___fldiv@new_exp+1)^(0+128),w
  4170  0FBA  3A80               	xorlw	128
  4171  0FBB  00FF               	movwf	btemp+1
  4172  0FBC  3080               	movlw	128
  4173  0FBD  027F               	subwf	btemp+1,w
  4174  0FBE  1D03               	skipz
  4175  0FBF  2FC2               	goto	u1905
  4176  0FC0  3001               	movlw	1
  4177  0FC1  0237               	subwf	___fldiv@new_exp^(0+128),w
  4178  0FC2                     u1905:
  4179  0FC2  1803               	skipnc
  4180  0FC3  2FC5               	goto	u1901
  4181  0FC4  2FC6               	goto	u1900
  4182  0FC5                     u1901:
  4183  0FC5  2FD7               	goto	l537
  4184  0FC6                     u1900:
  4185  0FC6                     l1532:
  4186  0FC6  1683               	bsf	3,5	;RP0=1, select bank1
  4187  0FC7  1303               	bcf	3,6	;RP1=0, select bank1
  4188  0FC8  01B7               	clrf	___fldiv@new_exp^(0+128)
  4189  0FC9  01B8               	clrf	(___fldiv@new_exp+1)^(0+128)
  4190  0FCA                     l1534:
  4191  0FCA  3000               	movlw	0
  4192  0FCB  1283               	bcf	3,5	;RP0=0, select bank0
  4193  0FCC  1303               	bcf	3,6	;RP1=0, select bank0
  4194  0FCD  00D0               	movwf	___fldiv@b+3
  4195  0FCE  3000               	movlw	0
  4196  0FCF  00CF               	movwf	___fldiv@b+2
  4197  0FD0  3000               	movlw	0
  4198  0FD1  00CE               	movwf	___fldiv@b+1
  4199  0FD2  3000               	movlw	0
  4200  0FD3  00CD               	movwf	___fldiv@b
  4201  0FD4                     l1536:
  4202  0FD4  1683               	bsf	3,5	;RP0=1, select bank1
  4203  0FD5  1303               	bcf	3,6	;RP1=0, select bank1
  4204  0FD6  01B6               	clrf	___fldiv@sign^(0+128)
  4205  0FD7                     l537:
  4206  0FD7  1683               	bsf	3,5	;RP0=1, select bank1
  4207  0FD8  1303               	bcf	3,6	;RP1=0, select bank1
  4208  0FD9  0837               	movf	___fldiv@new_exp^(0+128),w
  4209  0FDA  00AD               	movwf	??___fldiv^(0+128)
  4210  0FDB  082D               	movf	??___fldiv^(0+128),w
  4211  0FDC  00BD               	movwf	___fldiv@bexp^(0+128)
  4212  0FDD                     l1538:
  4213  0FDD  1C3D               	btfss	___fldiv@bexp^(0+128),0
  4214  0FDE  2FE0               	goto	u1911
  4215  0FDF  2FE1               	goto	u1910
  4216  0FE0                     u1911:
  4217  0FE0  2FE5               	goto	l1542
  4218  0FE1                     u1910:
  4219  0FE1                     l1540:
  4220  0FE1  1283               	bcf	3,5	;RP0=0, select bank0
  4221  0FE2  1303               	bcf	3,6	;RP1=0, select bank0
  4222  0FE3  17CF               	bsf	___fldiv@b+2,7
  4223  0FE4  2FEB               	goto	l539
  4224  0FE5                     l1542:
  4225  0FE5  307F               	movlw	127
  4226  0FE6  00AD               	movwf	??___fldiv^(0+128)
  4227  0FE7  082D               	movf	??___fldiv^(0+128),w
  4228  0FE8  1283               	bcf	3,5	;RP0=0, select bank0
  4229  0FE9  1303               	bcf	3,6	;RP1=0, select bank0
  4230  0FEA  05CF               	andwf	___fldiv@b+2,f
  4231  0FEB                     l539:
  4232  0FEB  1683               	bsf	3,5	;RP0=1, select bank1
  4233  0FEC  1303               	bcf	3,6	;RP1=0, select bank1
  4234  0FED  083D               	movf	___fldiv@bexp^(0+128),w
  4235  0FEE  00AD               	movwf	??___fldiv^(0+128)
  4236  0FEF  1003               	clrc
  4237  0FF0  0C2D               	rrf	??___fldiv^(0+128),w
  4238  0FF1  00AE               	movwf	(??___fldiv+1)^(0+128)
  4239  0FF2  082E               	movf	(??___fldiv+1)^(0+128),w
  4240  0FF3  1283               	bcf	3,5	;RP0=0, select bank0
  4241  0FF4  1303               	bcf	3,6	;RP1=0, select bank0
  4242  0FF5  00D0               	movwf	___fldiv@b+3
  4243  0FF6  1683               	bsf	3,5	;RP0=1, select bank1
  4244  0FF7  1303               	bcf	3,6	;RP1=0, select bank1
  4245  0FF8  0836               	movf	___fldiv@sign^(0+128),w
  4246  0FF9  00AD               	movwf	??___fldiv^(0+128)
  4247  0FFA  082D               	movf	??___fldiv^(0+128),w
  4248  0FFB  1283               	bcf	3,5	;RP0=0, select bank0
  4249  0FFC  1303               	bcf	3,6	;RP1=0, select bank0
  4250  0FFD  04D0               	iorwf	___fldiv@b+3,f
  4251  0FFE  2E05               	goto	l1450
  4252  0FFF                     l517:
  4253  0FFF  0008               	return
  4254  1000                     __end_of___fldiv:
  4255                           
  4256                           	psect	text8
  4257  0AD2                     __ptext8:	
  4258 ;; *************** function _ADC_Read *****************
  4259 ;; Defined at:
  4260 ;;		line 138 in file "demo2.c"
  4261 ;; Parameters:    Size  Location     Type
  4262 ;;  ADC_channel     2   14[BANK0 ] int 
  4263 ;; Auto vars:     Size  Location     Type
  4264 ;;		None
  4265 ;; Return value:  Size  Location     Type
  4266 ;;                  2   14[BANK0 ] unsigned int 
  4267 ;; Registers used:
  4268 ;;		wreg, status,2, status,0
  4269 ;; Tracked objects:
  4270 ;;		On entry : 0/0
  4271 ;;		On exit  : 0/0
  4272 ;;		Unchanged: 0/0
  4273 ;; Data sizes:     COMMON   BANK0   BANK1   BANK3   BANK2
  4274 ;;      Params:         0       2       0       0       0
  4275 ;;      Locals:         0       0       0       0       0
  4276 ;;      Temps:          0       3       0       0       0
  4277 ;;      Totals:         0       5       0       0       0
  4278 ;;Total ram usage:        5 bytes
  4279 ;; Hardware stack levels used: 1
  4280 ;; Hardware stack levels required when called: 3
  4281 ;; This function calls:
  4282 ;;		Nothing
  4283 ;; This function is called by:
  4284 ;;		_main
  4285 ;; This function uses a non-reentrant model
  4286 ;;
  4287                           
  4288                           
  4289                           ;psect for function _ADC_Read
  4290  0AD2                     _ADC_Read:
  4291  0AD2                     l1294:	
  4292                           ;incstack = 0
  4293                           ; Regs used in _ADC_Read: [wreg+status,2+status,0]
  4294                           
  4295                           
  4296                           ;demo2.c: 138: uint16_t ADC_Read(int ADC_channel);demo2.c: 139: {;demo2.c: 140:     ADCO
      +                          N0=(1<<0) | (ADC_channel<<2);
  4297  0AD2  1283               	bcf	3,5	;RP0=0, select bank0
  4298  0AD3  1303               	bcf	3,6	;RP1=0, select bank0
  4299  0AD4  082E               	movf	ADC_Read@ADC_channel,w
  4300  0AD5  00B0               	movwf	??_ADC_Read
  4301  0AD6  3001               	movlw	1
  4302  0AD7                     u1385:
  4303  0AD7  1003               	clrc
  4304  0AD8  0DB0               	rlf	??_ADC_Read,f
  4305  0AD9  3EFF               	addlw	-1
  4306  0ADA  1D03               	skipz
  4307  0ADB  2AD7               	goto	u1385
  4308  0ADC  1003               	clrc
  4309  0ADD  0D30               	rlf	??_ADC_Read,w
  4310  0ADE  3801               	iorlw	1
  4311  0ADF  009F               	movwf	31	;volatile
  4312  0AE0                     l1296:
  4313                           
  4314                           ;demo2.c: 141:     _delay((unsigned long)((100)*(20000000/4000.0)));
  4315  0AE0  3003               	movlw	3
  4316  0AE1  1283               	bcf	3,5	;RP0=0, select bank0
  4317  0AE2  1303               	bcf	3,6	;RP1=0, select bank0
  4318  0AE3  00B2               	movwf	??_ADC_Read+2
  4319  0AE4  308A               	movlw	138
  4320  0AE5  00B1               	movwf	??_ADC_Read+1
  4321  0AE6  3055               	movlw	85
  4322  0AE7  00B0               	movwf	??_ADC_Read
  4323  0AE8                     u2867:
  4324  0AE8  0BB0               	decfsz	??_ADC_Read,f
  4325  0AE9  2AE8               	goto	u2867
  4326  0AEA  0BB1               	decfsz	??_ADC_Read+1,f
  4327  0AEB  2AE8               	goto	u2867
  4328  0AEC  0BB2               	decfsz	??_ADC_Read+2,f
  4329  0AED  2AE8               	goto	u2867
  4330  0AEE                     l1298:
  4331                           
  4332                           ;demo2.c: 143:     GO=1;
  4333  0AEE  1283               	bcf	3,5	;RP0=0, select bank0
  4334  0AEF  1303               	bcf	3,6	;RP1=0, select bank0
  4335  0AF0  149F               	bsf	31,1	;volatile
  4336  0AF1                     l77:	
  4337                           ;demo2.c: 144:     while(GO_DONE==1);
  4338                           
  4339  0AF1  189F               	btfsc	31,1	;volatile
  4340  0AF2  2AF4               	goto	u1391
  4341  0AF3  2AF5               	goto	u1390
  4342  0AF4                     u1391:
  4343  0AF4  2AF1               	goto	l77
  4344  0AF5                     u1390:
  4345  0AF5                     l1300:
  4346                           
  4347                           ;demo2.c: 147:     return((ADRESH<<8) + ADRESL);
  4348  0AF5  081E               	movf	30,w	;volatile
  4349  0AF6  00AF               	movwf	?_ADC_Read+1
  4350  0AF7  1683               	bsf	3,5	;RP0=1, select bank1
  4351  0AF8  1303               	bcf	3,6	;RP1=0, select bank1
  4352  0AF9  081E               	movf	30,w	;volatile
  4353  0AFA  1283               	bcf	3,5	;RP0=0, select bank0
  4354  0AFB  1303               	bcf	3,6	;RP1=0, select bank0
  4355  0AFC  00AE               	movwf	?_ADC_Read
  4356  0AFD                     l80:
  4357  0AFD  0008               	return
  4358  0AFE                     __end_of_ADC_Read:
  4359                           
  4360                           	psect	text9
  4361  07F8                     __ptext9:	
  4362 ;; *************** function _ADC_Init *****************
  4363 ;; Defined at:
  4364 ;;		line 132 in file "demo2.c"
  4365 ;; Parameters:    Size  Location     Type
  4366 ;;		None
  4367 ;; Auto vars:     Size  Location     Type
  4368 ;;		None
  4369 ;; Return value:  Size  Location     Type
  4370 ;;                  1    wreg      void 
  4371 ;; Registers used:
  4372 ;;		wreg, status,2
  4373 ;; Tracked objects:
  4374 ;;		On entry : 0/0
  4375 ;;		On exit  : 0/0
  4376 ;;		Unchanged: 0/0
  4377 ;; Data sizes:     COMMON   BANK0   BANK1   BANK3   BANK2
  4378 ;;      Params:         0       0       0       0       0
  4379 ;;      Locals:         0       0       0       0       0
  4380 ;;      Temps:          0       0       0       0       0
  4381 ;;      Totals:         0       0       0       0       0
  4382 ;;Total ram usage:        0 bytes
  4383 ;; Hardware stack levels used: 1
  4384 ;; Hardware stack levels required when called: 3
  4385 ;; This function calls:
  4386 ;;		Nothing
  4387 ;; This function is called by:
  4388 ;;		_main
  4389 ;; This function uses a non-reentrant model
  4390 ;;
  4391                           
  4392                           
  4393                           ;psect for function _ADC_Init
  4394  07F8                     _ADC_Init:
  4395  07F8                     l1290:	
  4396                           ;incstack = 0
  4397                           ; Regs used in _ADC_Init: [wreg+status,2]
  4398                           
  4399                           
  4400                           ;demo2.c: 134:     ADCON0=0x00;
  4401  07F8  1283               	bcf	3,5	;RP0=0, select bank0
  4402  07F9  1303               	bcf	3,6	;RP1=0, select bank0
  4403  07FA  019F               	clrf	31	;volatile
  4404  07FB                     l1292:
  4405                           
  4406                           ;demo2.c: 135:     ADCON1= (1<<7);
  4407  07FB  3080               	movlw	128
  4408  07FC  1683               	bsf	3,5	;RP0=1, select bank1
  4409  07FD  1303               	bcf	3,6	;RP1=0, select bank1
  4410  07FE  009F               	movwf	31	;volatile
  4411  07FF                     l74:
  4412  07FF  0008               	return
  4413  0800                     __end_of_ADC_Init:
  4414                           
  4415                           	psect	text10
  4416  0A93                     __ptext10:	
  4417 ;; *************** function _ISR *****************
  4418 ;; Defined at:
  4419 ;;		line 96 in file "demo2.c"
  4420 ;; Parameters:    Size  Location     Type
  4421 ;;		None
  4422 ;; Auto vars:     Size  Location     Type
  4423 ;;		None
  4424 ;; Return value:  Size  Location     Type
  4425 ;;                  1    wreg      void 
  4426 ;; Registers used:
  4427 ;;		wreg, fsr0l, fsr0h, status,2, status,0, pclath, cstack
  4428 ;; Tracked objects:
  4429 ;;		On entry : 0/0
  4430 ;;		On exit  : 0/0
  4431 ;;		Unchanged: 0/0
  4432 ;; Data sizes:     COMMON   BANK0   BANK1   BANK3   BANK2
  4433 ;;      Params:         0       0       0       0       0
  4434 ;;      Locals:         0       0       0       0       0
  4435 ;;      Temps:          0       3       0       0       0
  4436 ;;      Totals:         0       3       0       0       0
  4437 ;;Total ram usage:        3 bytes
  4438 ;; Hardware stack levels used: 1
  4439 ;; Hardware stack levels required when called: 2
  4440 ;; This function calls:
  4441 ;;		_SevenSeg1_Write
  4442 ;;		_display_data
  4443 ;; This function is called by:
  4444 ;;		Interrupt level 1
  4445 ;; This function uses a non-reentrant model
  4446 ;;
  4447                           
  4448                           
  4449                           ;psect for function _ISR
  4450  0A93                     _ISR:
  4451  0A93                     i1l1770:
  4452                           
  4453                           ;demo2.c: 98:    SevenSeg1_Write();
  4454  0A93  120A  158A  24CE  120A  158A  	fcall	_SevenSeg1_Write
  4455  0A98                     i1l1772:
  4456                           
  4457                           ;demo2.c: 99:    display_data();
  4458  0A98  120A  158A  2346  120A  158A  	fcall	_display_data
  4459  0A9D                     i1l1774:
  4460                           
  4461                           ;demo2.c: 100:    INTCONbits.T0IF = 0;
  4462  0A9D  110B               	bcf	11,2	;volatile
  4463  0A9E                     i1l68:
  4464  0A9E  1283               	bcf	3,5	;RP0=0, select bank0
  4465  0A9F  1303               	bcf	3,6	;RP1=0, select bank0
  4466  0AA0  082D               	movf	??_ISR+2,w
  4467  0AA1  008A               	movwf	10
  4468  0AA2  082C               	movf	??_ISR+1,w
  4469  0AA3  0084               	movwf	4
  4470  0AA4  0E2B               	swapf	??_ISR,w
  4471  0AA5  0083               	movwf	3
  4472  0AA6  0EFE               	swapf	btemp,f
  4473  0AA7  0E7E               	swapf	btemp,w
  4474  0AA8  0009               	retfie
  4475  0AA9                     __end_of_ISR:
  4476                           
  4477                           	psect	intentry
  4478  0004                     __pintentry:	
  4479                           ;incstack = 0
  4480                           ; Regs used in _ISR: [wreg-fsr0h+status,2+status,0+pclath+cstack]
  4481                           
  4482  0004                     interrupt_function:
  4483  007E                     saved_w	set	btemp
  4484  0004  00FE               	movwf	btemp
  4485  0005  0E03               	swapf	3,w
  4486  0006  1283               	bcf	3,5	;RP0=0, select bank0
  4487  0007  1303               	bcf	3,6	;RP1=0, select bank0
  4488  0008  00AB               	movwf	??_ISR
  4489  0009  0804               	movf	4,w
  4490  000A  00AC               	movwf	??_ISR+1
  4491  000B  080A               	movf	10,w
  4492  000C  00AD               	movwf	??_ISR+2
  4493  000D  120A  158A  2A93   	ljmp	_ISR
  4494                           
  4495                           	psect	text11
  4496  0B46                     __ptext11:	
  4497 ;; *************** function _display_data *****************
  4498 ;; Defined at:
  4499 ;;		line 102 in file "demo2.c"
  4500 ;; Parameters:    Size  Location     Type
  4501 ;;		None
  4502 ;; Auto vars:     Size  Location     Type
  4503 ;;		None
  4504 ;; Return value:  Size  Location     Type
  4505 ;;                  1    wreg      void 
  4506 ;; Registers used:
  4507 ;;		wreg, fsr0l, fsr0h, status,2, status,0
  4508 ;; Tracked objects:
  4509 ;;		On entry : 0/0
  4510 ;;		On exit  : 0/0
  4511 ;;		Unchanged: 0/0
  4512 ;; Data sizes:     COMMON   BANK0   BANK1   BANK3   BANK2
  4513 ;;      Params:         0       0       0       0       0
  4514 ;;      Locals:         0       0       0       0       0
  4515 ;;      Temps:          2       0       0       0       0
  4516 ;;      Totals:         2       0       0       0       0
  4517 ;;Total ram usage:        2 bytes
  4518 ;; Hardware stack levels used: 1
  4519 ;; This function calls:
  4520 ;;		Nothing
  4521 ;; This function is called by:
  4522 ;;		_ISR
  4523 ;; This function uses a non-reentrant model
  4524 ;;
  4525                           
  4526                           
  4527                           ;psect for function _display_data
  4528  0B46                     _display_data:
  4529  0B46                     i1l1306:	
  4530                           ;incstack = 0
  4531                           ; Regs used in _display_data: [wreg-fsr0h+status,2+status,0]
  4532                           
  4533                           
  4534                           ;demo2.c: 106:     PORTD = Segments_Code[Digits[0]];
  4535  0B46  1283               	bcf	3,5	;RP0=0, select bank0
  4536  0B47  1303               	bcf	3,6	;RP1=0, select bank0
  4537  0B48  0855               	movf	_Digits,w
  4538  0B49  3EC2               	addlw	(low (_Segments_Code| 0))& (0+255)
  4539  0B4A  0084               	movwf	4
  4540  0B4B  1383               	bcf	3,7	;select IRP bank1
  4541  0B4C  0800               	movf	0,w
  4542  0B4D  0088               	movwf	8	;volatile
  4543  0B4E                     i1l1308:
  4544                           
  4545                           ;demo2.c: 107:     PORTCbits.RC0 = 0;
  4546  0B4E  1007               	bcf	7,0	;volatile
  4547  0B4F                     i1l1310:
  4548                           
  4549                           ;demo2.c: 108:     _delay((unsigned long)((3)*(20000000/4000.0)));
  4550  0B4F  3014               	movlw	20
  4551  0B50  00F1               	movwf	??_display_data+1
  4552  0B51  3079               	movlw	121
  4553  0B52  00F0               	movwf	??_display_data
  4554  0B53                     u287_27:
  4555  0B53  0BF0               	decfsz	??_display_data,f
  4556  0B54  2B53               	goto	u287_27
  4557  0B55  0BF1               	decfsz	??_display_data+1,f
  4558  0B56  2B53               	goto	u287_27
  4559  0B57  2B58               	nop2
  4560  0B58                     i1l1312:
  4561                           
  4562                           ;demo2.c: 109:     PORTCbits.RC0 = 1;
  4563  0B58  1283               	bcf	3,5	;RP0=0, select bank0
  4564  0B59  1303               	bcf	3,6	;RP1=0, select bank0
  4565  0B5A  1407               	bsf	7,0	;volatile
  4566  0B5B                     i1l1314:
  4567                           
  4568                           ;demo2.c: 111:     PORTD = Segments_Code[Digits[1]];
  4569  0B5B  0856               	movf	_Digits+1,w
  4570  0B5C  3EC2               	addlw	(low (_Segments_Code| 0))& (0+255)
  4571  0B5D  0084               	movwf	4
  4572  0B5E  1383               	bcf	3,7	;select IRP bank1
  4573  0B5F  0800               	movf	0,w
  4574  0B60  0088               	movwf	8	;volatile
  4575  0B61                     i1l1316:
  4576                           
  4577                           ;demo2.c: 112:     PORTCbits.RC1 = 0;
  4578  0B61  1087               	bcf	7,1	;volatile
  4579  0B62                     i1l1318:
  4580                           
  4581                           ;demo2.c: 113:     PORTDbits.RD7 = 1;
  4582  0B62  1788               	bsf	8,7	;volatile
  4583                           
  4584                           ;demo2.c: 114:     _delay((unsigned long)((3)*(20000000/4000.0)));
  4585  0B63  3014               	movlw	20
  4586  0B64  00F1               	movwf	??_display_data+1
  4587  0B65  3079               	movlw	121
  4588  0B66  00F0               	movwf	??_display_data
  4589  0B67                     u288_27:
  4590  0B67  0BF0               	decfsz	??_display_data,f
  4591  0B68  2B67               	goto	u288_27
  4592  0B69  0BF1               	decfsz	??_display_data+1,f
  4593  0B6A  2B67               	goto	u288_27
  4594  0B6B  2B6C               	nop2
  4595  0B6C                     i1l1320:
  4596                           
  4597                           ;demo2.c: 115:     PORTCbits.RC1 = 1;
  4598  0B6C  1283               	bcf	3,5	;RP0=0, select bank0
  4599  0B6D  1303               	bcf	3,6	;RP1=0, select bank0
  4600  0B6E  1487               	bsf	7,1	;volatile
  4601  0B6F                     i1l1322:
  4602                           
  4603                           ;demo2.c: 117:     PORTD = Segments_Code[Digits[2]];
  4604  0B6F  0857               	movf	_Digits+2,w
  4605  0B70  3EC2               	addlw	(low (_Segments_Code| 0))& (0+255)
  4606  0B71  0084               	movwf	4
  4607  0B72  1383               	bcf	3,7	;select IRP bank1
  4608  0B73  0800               	movf	0,w
  4609  0B74  0088               	movwf	8	;volatile
  4610  0B75                     i1l1324:
  4611                           
  4612                           ;demo2.c: 118:     PORTCbits.RC2 = 0;
  4613  0B75  1107               	bcf	7,2	;volatile
  4614  0B76                     i1l1326:
  4615                           
  4616                           ;demo2.c: 119:     _delay((unsigned long)((3)*(20000000/4000.0)));
  4617  0B76  3014               	movlw	20
  4618  0B77  00F1               	movwf	??_display_data+1
  4619  0B78  3079               	movlw	121
  4620  0B79  00F0               	movwf	??_display_data
  4621  0B7A                     u289_27:
  4622  0B7A  0BF0               	decfsz	??_display_data,f
  4623  0B7B  2B7A               	goto	u289_27
  4624  0B7C  0BF1               	decfsz	??_display_data+1,f
  4625  0B7D  2B7A               	goto	u289_27
  4626  0B7E  2B7F               	nop2
  4627  0B7F                     i1l1328:
  4628                           
  4629                           ;demo2.c: 120:     PORTCbits.RC2 = 1;
  4630  0B7F  1283               	bcf	3,5	;RP0=0, select bank0
  4631  0B80  1303               	bcf	3,6	;RP1=0, select bank0
  4632  0B81  1507               	bsf	7,2	;volatile
  4633                           
  4634                           ;demo2.c: 122:     PORTD = Segments_Code[Digits[3]];
  4635  0B82  0858               	movf	_Digits+3,w
  4636  0B83  3EC2               	addlw	(low (_Segments_Code| 0))& (0+255)
  4637  0B84  0084               	movwf	4
  4638  0B85  1383               	bcf	3,7	;select IRP bank1
  4639  0B86  0800               	movf	0,w
  4640  0B87  0088               	movwf	8	;volatile
  4641  0B88                     i1l1330:
  4642                           
  4643                           ;demo2.c: 123:     PORTCbits.RC3 = 0;
  4644  0B88  1187               	bcf	7,3	;volatile
  4645  0B89                     i1l1332:
  4646                           
  4647                           ;demo2.c: 124:     _delay((unsigned long)((3)*(20000000/4000.0)));
  4648  0B89  3014               	movlw	20
  4649  0B8A  00F1               	movwf	??_display_data+1
  4650  0B8B  3079               	movlw	121
  4651  0B8C  00F0               	movwf	??_display_data
  4652  0B8D                     u290_27:
  4653  0B8D  0BF0               	decfsz	??_display_data,f
  4654  0B8E  2B8D               	goto	u290_27
  4655  0B8F  0BF1               	decfsz	??_display_data+1,f
  4656  0B90  2B8D               	goto	u290_27
  4657  0B91  2B92               	nop2
  4658  0B92                     i1l1334:
  4659                           
  4660                           ;demo2.c: 125:     PORTCbits.RC3 = 1;
  4661  0B92  1283               	bcf	3,5	;RP0=0, select bank0
  4662  0B93  1303               	bcf	3,6	;RP1=0, select bank0
  4663  0B94  1587               	bsf	7,3	;volatile
  4664  0B95                     i1l71:
  4665  0B95  0008               	return
  4666  0B96                     __end_of_display_data:
  4667                           
  4668                           	psect	text12
  4669  0CCE                     __ptext12:	
  4670 ;; *************** function _SevenSeg1_Write *****************
  4671 ;; Defined at:
  4672 ;;		line 82 in file "demo2.c"
  4673 ;; Parameters:    Size  Location     Type
  4674 ;;		None
  4675 ;; Auto vars:     Size  Location     Type
  4676 ;;		None
  4677 ;; Return value:  Size  Location     Type
  4678 ;;                  1    wreg      void 
  4679 ;; Registers used:
  4680 ;;		wreg, status,2, status,0, pclath, cstack
  4681 ;; Tracked objects:
  4682 ;;		On entry : 0/0
  4683 ;;		On exit  : 0/0
  4684 ;;		Unchanged: 0/0
  4685 ;; Data sizes:     COMMON   BANK0   BANK1   BANK3   BANK2
  4686 ;;      Params:         0       0       0       0       0
  4687 ;;      Locals:         0       0       0       0       0
  4688 ;;      Temps:          0       1       0       0       0
  4689 ;;      Totals:         0       1       0       0       0
  4690 ;;Total ram usage:        1 bytes
  4691 ;; Hardware stack levels used: 1
  4692 ;; Hardware stack levels required when called: 1
  4693 ;; This function calls:
  4694 ;;		___lldiv
  4695 ;;		___llmod
  4696 ;; This function is called by:
  4697 ;;		_ISR
  4698 ;; This function uses a non-reentrant model
  4699 ;;
  4700                           
  4701                           
  4702                           ;psect for function _SevenSeg1_Write
  4703  0CCE                     _SevenSeg1_Write:
  4704  0CCE                     i1l1304:	
  4705                           ;incstack = 0
  4706                           ; Regs used in _SevenSeg1_Write: [wreg+status,2+status,0+pclath+cstack]
  4707                           
  4708                           
  4709                           ;demo2.c: 85:     Digits[0] =(Vin_convert/1000) ;
  4710  0CCE  3000               	movlw	0
  4711  0CCF  00F3               	movwf	___lldiv@divisor+3
  4712  0CD0  3000               	movlw	0
  4713  0CD1  00F2               	movwf	___lldiv@divisor+2
  4714  0CD2  3003               	movlw	3
  4715  0CD3  00F1               	movwf	___lldiv@divisor+1
  4716  0CD4  30E8               	movlw	232
  4717  0CD5  00F0               	movwf	___lldiv@divisor
  4718  0CD6  1283               	bcf	3,5	;RP0=0, select bank0
  4719  0CD7  1303               	bcf	3,6	;RP1=0, select bank0
  4720  0CD8  0854               	movf	_Vin_convert+3,w
  4721  0CD9  00F7               	movwf	___lldiv@dividend+3
  4722  0CDA  0853               	movf	_Vin_convert+2,w
  4723  0CDB  00F6               	movwf	___lldiv@dividend+2
  4724  0CDC  0852               	movf	_Vin_convert+1,w
  4725  0CDD  00F5               	movwf	___lldiv@dividend+1
  4726  0CDE  0851               	movf	_Vin_convert,w
  4727  0CDF  00F4               	movwf	___lldiv@dividend
  4728  0CE0  120A  158A  23EC  120A  158A  	fcall	___lldiv
  4729  0CE5  0870               	movf	?___lldiv,w
  4730  0CE6  1283               	bcf	3,5	;RP0=0, select bank0
  4731  0CE7  1303               	bcf	3,6	;RP1=0, select bank0
  4732  0CE8  00AA               	movwf	??_SevenSeg1_Write
  4733  0CE9  082A               	movf	??_SevenSeg1_Write,w
  4734  0CEA  00D5               	movwf	_Digits
  4735                           
  4736                           ;demo2.c: 87:     Digits[1] =(Vin_convert/100)%10 ;
  4737  0CEB  3000               	movlw	0
  4738  0CEC  00A3               	movwf	___llmod@divisor+3
  4739  0CED  3000               	movlw	0
  4740  0CEE  00A2               	movwf	___llmod@divisor+2
  4741  0CEF  3000               	movlw	0
  4742  0CF0  00A1               	movwf	___llmod@divisor+1
  4743  0CF1  300A               	movlw	10
  4744  0CF2  00A0               	movwf	___llmod@divisor
  4745  0CF3  3000               	movlw	0
  4746  0CF4  00F3               	movwf	___lldiv@divisor+3
  4747  0CF5  3000               	movlw	0
  4748  0CF6  00F2               	movwf	___lldiv@divisor+2
  4749  0CF7  3000               	movlw	0
  4750  0CF8  00F1               	movwf	___lldiv@divisor+1
  4751  0CF9  3064               	movlw	100
  4752  0CFA  00F0               	movwf	___lldiv@divisor
  4753  0CFB  0854               	movf	_Vin_convert+3,w
  4754  0CFC  00F7               	movwf	___lldiv@dividend+3
  4755  0CFD  0853               	movf	_Vin_convert+2,w
  4756  0CFE  00F6               	movwf	___lldiv@dividend+2
  4757  0CFF  0852               	movf	_Vin_convert+1,w
  4758  0D00  00F5               	movwf	___lldiv@dividend+1
  4759  0D01  0851               	movf	_Vin_convert,w
  4760  0D02  00F4               	movwf	___lldiv@dividend
  4761  0D03  120A  158A  23EC  120A  158A  	fcall	___lldiv
  4762  0D08  0873               	movf	?___lldiv+3,w
  4763  0D09  1283               	bcf	3,5	;RP0=0, select bank0
  4764  0D0A  1303               	bcf	3,6	;RP1=0, select bank0
  4765  0D0B  00A7               	movwf	___llmod@dividend+3
  4766  0D0C  0872               	movf	?___lldiv+2,w
  4767  0D0D  00A6               	movwf	___llmod@dividend+2
  4768  0D0E  0871               	movf	?___lldiv+1,w
  4769  0D0F  00A5               	movwf	___llmod@dividend+1
  4770  0D10  0870               	movf	?___lldiv,w
  4771  0D11  00A4               	movwf	___llmod@dividend
  4772  0D12  120A  158A  2396  120A  158A  	fcall	___llmod
  4773  0D17  1283               	bcf	3,5	;RP0=0, select bank0
  4774  0D18  1303               	bcf	3,6	;RP1=0, select bank0
  4775  0D19  0820               	movf	?___llmod,w
  4776  0D1A  00AA               	movwf	??_SevenSeg1_Write
  4777  0D1B  082A               	movf	??_SevenSeg1_Write,w
  4778  0D1C  00D6               	movwf	_Digits+1
  4779                           
  4780                           ;demo2.c: 89:     Digits[2] =(Vin_convert/10)%10; ;
  4781  0D1D  3000               	movlw	0
  4782  0D1E  00A3               	movwf	___llmod@divisor+3
  4783  0D1F  3000               	movlw	0
  4784  0D20  00A2               	movwf	___llmod@divisor+2
  4785  0D21  3000               	movlw	0
  4786  0D22  00A1               	movwf	___llmod@divisor+1
  4787  0D23  300A               	movlw	10
  4788  0D24  00A0               	movwf	___llmod@divisor
  4789  0D25  3000               	movlw	0
  4790  0D26  00F3               	movwf	___lldiv@divisor+3
  4791  0D27  3000               	movlw	0
  4792  0D28  00F2               	movwf	___lldiv@divisor+2
  4793  0D29  3000               	movlw	0
  4794  0D2A  00F1               	movwf	___lldiv@divisor+1
  4795  0D2B  300A               	movlw	10
  4796  0D2C  00F0               	movwf	___lldiv@divisor
  4797  0D2D  0854               	movf	_Vin_convert+3,w
  4798  0D2E  00F7               	movwf	___lldiv@dividend+3
  4799  0D2F  0853               	movf	_Vin_convert+2,w
  4800  0D30  00F6               	movwf	___lldiv@dividend+2
  4801  0D31  0852               	movf	_Vin_convert+1,w
  4802  0D32  00F5               	movwf	___lldiv@dividend+1
  4803  0D33  0851               	movf	_Vin_convert,w
  4804  0D34  00F4               	movwf	___lldiv@dividend
  4805  0D35  120A  158A  23EC  120A  158A  	fcall	___lldiv
  4806  0D3A  0873               	movf	?___lldiv+3,w
  4807  0D3B  1283               	bcf	3,5	;RP0=0, select bank0
  4808  0D3C  1303               	bcf	3,6	;RP1=0, select bank0
  4809  0D3D  00A7               	movwf	___llmod@dividend+3
  4810  0D3E  0872               	movf	?___lldiv+2,w
  4811  0D3F  00A6               	movwf	___llmod@dividend+2
  4812  0D40  0871               	movf	?___lldiv+1,w
  4813  0D41  00A5               	movwf	___llmod@dividend+1
  4814  0D42  0870               	movf	?___lldiv,w
  4815  0D43  00A4               	movwf	___llmod@dividend
  4816  0D44  120A  158A  2396  120A  158A  	fcall	___llmod
  4817  0D49  1283               	bcf	3,5	;RP0=0, select bank0
  4818  0D4A  1303               	bcf	3,6	;RP1=0, select bank0
  4819  0D4B  0820               	movf	?___llmod,w
  4820  0D4C  00AA               	movwf	??_SevenSeg1_Write
  4821  0D4D  082A               	movf	??_SevenSeg1_Write,w
  4822  0D4E  00D7               	movwf	_Digits+2
  4823                           
  4824                           ;demo2.c: 91:     Digits[3]=(Vin_convert%10);
  4825  0D4F  3000               	movlw	0
  4826  0D50  00A3               	movwf	___llmod@divisor+3
  4827  0D51  3000               	movlw	0
  4828  0D52  00A2               	movwf	___llmod@divisor+2
  4829  0D53  3000               	movlw	0
  4830  0D54  00A1               	movwf	___llmod@divisor+1
  4831  0D55  300A               	movlw	10
  4832  0D56  00A0               	movwf	___llmod@divisor
  4833  0D57  0854               	movf	_Vin_convert+3,w
  4834  0D58  00A7               	movwf	___llmod@dividend+3
  4835  0D59  0853               	movf	_Vin_convert+2,w
  4836  0D5A  00A6               	movwf	___llmod@dividend+2
  4837  0D5B  0852               	movf	_Vin_convert+1,w
  4838  0D5C  00A5               	movwf	___llmod@dividend+1
  4839  0D5D  0851               	movf	_Vin_convert,w
  4840  0D5E  00A4               	movwf	___llmod@dividend
  4841  0D5F  120A  158A  2396  120A  158A  	fcall	___llmod
  4842  0D64  1283               	bcf	3,5	;RP0=0, select bank0
  4843  0D65  1303               	bcf	3,6	;RP1=0, select bank0
  4844  0D66  0820               	movf	?___llmod,w
  4845  0D67  00AA               	movwf	??_SevenSeg1_Write
  4846  0D68  082A               	movf	??_SevenSeg1_Write,w
  4847  0D69  00D8               	movwf	_Digits+3
  4848  0D6A                     i1l63:
  4849  0D6A  0008               	return
  4850  0D6B                     __end_of_SevenSeg1_Write:
  4851                           
  4852                           	psect	text13
  4853  0B96                     __ptext13:	
  4854 ;; *************** function ___llmod *****************
  4855 ;; Defined at:
  4856 ;;		line 5 in file "C:\Program Files\Microchip\xc8\v2.32\pic\sources\c90\common\llmod.c"
  4857 ;; Parameters:    Size  Location     Type
  4858 ;;  divisor         4    0[BANK0 ] unsigned long 
  4859 ;;  dividend        4    4[BANK0 ] unsigned long 
  4860 ;; Auto vars:     Size  Location     Type
  4861 ;;  counter         1    9[BANK0 ] unsigned char 
  4862 ;; Return value:  Size  Location     Type
  4863 ;;                  4    0[BANK0 ] unsigned long 
  4864 ;; Registers used:
  4865 ;;		wreg, status,2, status,0
  4866 ;; Tracked objects:
  4867 ;;		On entry : 0/0
  4868 ;;		On exit  : 0/0
  4869 ;;		Unchanged: 0/0
  4870 ;; Data sizes:     COMMON   BANK0   BANK1   BANK3   BANK2
  4871 ;;      Params:         0       8       0       0       0
  4872 ;;      Locals:         0       1       0       0       0
  4873 ;;      Temps:          0       1       0       0       0
  4874 ;;      Totals:         0      10       0       0       0
  4875 ;;Total ram usage:       10 bytes
  4876 ;; Hardware stack levels used: 1
  4877 ;; This function calls:
  4878 ;;		Nothing
  4879 ;; This function is called by:
  4880 ;;		_SevenSeg1_Write
  4881 ;; This function uses a non-reentrant model
  4882 ;;
  4883                           
  4884                           
  4885                           ;psect for function ___llmod
  4886  0B96                     ___llmod:
  4887  0B96                     i1l1256:	
  4888                           ;incstack = 0
  4889                           ; Regs used in ___llmod: [wreg+status,2+status,0]
  4890                           
  4891  0B96  1283               	bcf	3,5	;RP0=0, select bank0
  4892  0B97  1303               	bcf	3,6	;RP1=0, select bank0
  4893  0B98  0823               	movf	___llmod@divisor+3,w
  4894  0B99  0422               	iorwf	___llmod@divisor+2,w
  4895  0B9A  0421               	iorwf	___llmod@divisor+1,w
  4896  0B9B  0420               	iorwf	___llmod@divisor,w
  4897  0B9C  1903               	skipnz
  4898  0B9D  2B9F               	goto	u129_21
  4899  0B9E  2BA0               	goto	u129_20
  4900  0B9F                     u129_21:
  4901  0B9F  2BE3               	goto	i1l1272
  4902  0BA0                     u129_20:
  4903  0BA0                     i1l1258:
  4904  0BA0  01A9               	clrf	___llmod@counter
  4905  0BA1  0AA9               	incf	___llmod@counter,f
  4906  0BA2  2BB0               	goto	i1l1262
  4907  0BA3                     i1l1260:
  4908  0BA3  3001               	movlw	1
  4909  0BA4  00A8               	movwf	??___llmod
  4910  0BA5                     u130_25:
  4911  0BA5  1003               	clrc
  4912  0BA6  0DA0               	rlf	___llmod@divisor,f
  4913  0BA7  0DA1               	rlf	___llmod@divisor+1,f
  4914  0BA8  0DA2               	rlf	___llmod@divisor+2,f
  4915  0BA9  0DA3               	rlf	___llmod@divisor+3,f
  4916  0BAA  0BA8               	decfsz	??___llmod,f
  4917  0BAB  2BA5               	goto	u130_25
  4918  0BAC  3001               	movlw	1
  4919  0BAD  00A8               	movwf	??___llmod
  4920  0BAE  0828               	movf	??___llmod,w
  4921  0BAF  07A9               	addwf	___llmod@counter,f
  4922  0BB0                     i1l1262:
  4923  0BB0  1FA3               	btfss	___llmod@divisor+3,7
  4924  0BB1  2BB3               	goto	u131_21
  4925  0BB2  2BB4               	goto	u131_20
  4926  0BB3                     u131_21:
  4927  0BB3  2BA3               	goto	i1l1260
  4928  0BB4                     u131_20:
  4929  0BB4                     i1l1264:
  4930  0BB4  0823               	movf	___llmod@divisor+3,w
  4931  0BB5  0227               	subwf	___llmod@dividend+3,w
  4932  0BB6  1D03               	skipz
  4933  0BB7  2BC2               	goto	u132_25
  4934  0BB8  0822               	movf	___llmod@divisor+2,w
  4935  0BB9  0226               	subwf	___llmod@dividend+2,w
  4936  0BBA  1D03               	skipz
  4937  0BBB  2BC2               	goto	u132_25
  4938  0BBC  0821               	movf	___llmod@divisor+1,w
  4939  0BBD  0225               	subwf	___llmod@dividend+1,w
  4940  0BBE  1D03               	skipz
  4941  0BBF  2BC2               	goto	u132_25
  4942  0BC0  0820               	movf	___llmod@divisor,w
  4943  0BC1  0224               	subwf	___llmod@dividend,w
  4944  0BC2                     u132_25:
  4945  0BC2  1C03               	skipc
  4946  0BC3  2BC5               	goto	u132_21
  4947  0BC4  2BC6               	goto	u132_20
  4948  0BC5                     u132_21:
  4949  0BC5  2BD4               	goto	i1l1268
  4950  0BC6                     u132_20:
  4951  0BC6                     i1l1266:
  4952  0BC6  0820               	movf	___llmod@divisor,w
  4953  0BC7  02A4               	subwf	___llmod@dividend,f
  4954  0BC8  0821               	movf	___llmod@divisor+1,w
  4955  0BC9  1C03               	skipc
  4956  0BCA  0F21               	incfsz	___llmod@divisor+1,w
  4957  0BCB  02A5               	subwf	___llmod@dividend+1,f
  4958  0BCC  0822               	movf	___llmod@divisor+2,w
  4959  0BCD  1C03               	skipc
  4960  0BCE  0F22               	incfsz	___llmod@divisor+2,w
  4961  0BCF  02A6               	subwf	___llmod@dividend+2,f
  4962  0BD0  0823               	movf	___llmod@divisor+3,w
  4963  0BD1  1C03               	skipc
  4964  0BD2  0F23               	incfsz	___llmod@divisor+3,w
  4965  0BD3  02A7               	subwf	___llmod@dividend+3,f
  4966  0BD4                     i1l1268:
  4967  0BD4  3001               	movlw	1
  4968  0BD5                     u133_25:
  4969  0BD5  1003               	clrc
  4970  0BD6  0CA3               	rrf	___llmod@divisor+3,f
  4971  0BD7  0CA2               	rrf	___llmod@divisor+2,f
  4972  0BD8  0CA1               	rrf	___llmod@divisor+1,f
  4973  0BD9  0CA0               	rrf	___llmod@divisor,f
  4974  0BDA  3EFF               	addlw	-1
  4975  0BDB  1D03               	skipz
  4976  0BDC  2BD5               	goto	u133_25
  4977  0BDD                     i1l1270:
  4978  0BDD  3001               	movlw	1
  4979  0BDE  02A9               	subwf	___llmod@counter,f
  4980  0BDF  1D03               	btfss	3,2
  4981  0BE0  2BE2               	goto	u134_21
  4982  0BE1  2BE3               	goto	u134_20
  4983  0BE2                     u134_21:
  4984  0BE2  2BB4               	goto	i1l1264
  4985  0BE3                     u134_20:
  4986  0BE3                     i1l1272:
  4987  0BE3  0827               	movf	___llmod@dividend+3,w
  4988  0BE4  00A3               	movwf	?___llmod+3
  4989  0BE5  0826               	movf	___llmod@dividend+2,w
  4990  0BE6  00A2               	movwf	?___llmod+2
  4991  0BE7  0825               	movf	___llmod@dividend+1,w
  4992  0BE8  00A1               	movwf	?___llmod+1
  4993  0BE9  0824               	movf	___llmod@dividend,w
  4994  0BEA  00A0               	movwf	?___llmod
  4995  0BEB                     i1l388:
  4996  0BEB  0008               	return
  4997  0BEC                     __end_of___llmod:
  4998                           
  4999                           	psect	text14
  5000  0BEC                     __ptext14:	
  5001 ;; *************** function ___lldiv *****************
  5002 ;; Defined at:
  5003 ;;		line 5 in file "C:\Program Files\Microchip\xc8\v2.32\pic\sources\c90\common\__lldiv.c"
  5004 ;; Parameters:    Size  Location     Type
  5005 ;;  divisor         4    0[COMMON] unsigned long 
  5006 ;;  dividend        4    4[COMMON] unsigned long 
  5007 ;; Auto vars:     Size  Location     Type
  5008 ;;  quotient        4    9[COMMON] unsigned long 
  5009 ;;  counter         1   13[COMMON] unsigned char 
  5010 ;; Return value:  Size  Location     Type
  5011 ;;                  4    0[COMMON] unsigned long 
  5012 ;; Registers used:
  5013 ;;		wreg, status,2, status,0
  5014 ;; Tracked objects:
  5015 ;;		On entry : 0/0
  5016 ;;		On exit  : 0/0
  5017 ;;		Unchanged: 0/0
  5018 ;; Data sizes:     COMMON   BANK0   BANK1   BANK3   BANK2
  5019 ;;      Params:         8       0       0       0       0
  5020 ;;      Locals:         5       0       0       0       0
  5021 ;;      Temps:          1       0       0       0       0
  5022 ;;      Totals:        14       0       0       0       0
  5023 ;;Total ram usage:       14 bytes
  5024 ;; Hardware stack levels used: 1
  5025 ;; This function calls:
  5026 ;;		Nothing
  5027 ;; This function is called by:
  5028 ;;		_SevenSeg1_Write
  5029 ;; This function uses a non-reentrant model
  5030 ;;
  5031                           
  5032                           
  5033                           ;psect for function ___lldiv
  5034  0BEC                     ___lldiv:
  5035  0BEC                     i1l1232:	
  5036                           ;incstack = 0
  5037                           ; Regs used in ___lldiv: [wreg+status,2+status,0]
  5038                           
  5039  0BEC  3000               	movlw	0
  5040  0BED  00FC               	movwf	___lldiv@quotient+3
  5041  0BEE  3000               	movlw	0
  5042  0BEF  00FB               	movwf	___lldiv@quotient+2
  5043  0BF0  3000               	movlw	0
  5044  0BF1  00FA               	movwf	___lldiv@quotient+1
  5045  0BF2  3000               	movlw	0
  5046  0BF3  00F9               	movwf	___lldiv@quotient
  5047  0BF4  0873               	movf	___lldiv@divisor+3,w
  5048  0BF5  0472               	iorwf	___lldiv@divisor+2,w
  5049  0BF6  0471               	iorwf	___lldiv@divisor+1,w
  5050  0BF7  0470               	iorwf	___lldiv@divisor,w
  5051  0BF8  1903               	skipnz
  5052  0BF9  2BFB               	goto	u122_21
  5053  0BFA  2BFC               	goto	u122_20
  5054  0BFB                     u122_21:
  5055  0BFB  2C49               	goto	i1l1252
  5056  0BFC                     u122_20:
  5057  0BFC                     i1l1234:
  5058  0BFC  01FD               	clrf	___lldiv@counter
  5059  0BFD  0AFD               	incf	___lldiv@counter,f
  5060  0BFE  2C0C               	goto	i1l1238
  5061  0BFF                     i1l1236:
  5062  0BFF  3001               	movlw	1
  5063  0C00  00F8               	movwf	??___lldiv
  5064  0C01                     u123_25:
  5065  0C01  1003               	clrc
  5066  0C02  0DF0               	rlf	___lldiv@divisor,f
  5067  0C03  0DF1               	rlf	___lldiv@divisor+1,f
  5068  0C04  0DF2               	rlf	___lldiv@divisor+2,f
  5069  0C05  0DF3               	rlf	___lldiv@divisor+3,f
  5070  0C06  0BF8               	decfsz	??___lldiv,f
  5071  0C07  2C01               	goto	u123_25
  5072  0C08  3001               	movlw	1
  5073  0C09  00F8               	movwf	??___lldiv
  5074  0C0A  0878               	movf	??___lldiv,w
  5075  0C0B  07FD               	addwf	___lldiv@counter,f
  5076  0C0C                     i1l1238:
  5077  0C0C  1FF3               	btfss	___lldiv@divisor+3,7
  5078  0C0D  2C0F               	goto	u124_21
  5079  0C0E  2C10               	goto	u124_20
  5080  0C0F                     u124_21:
  5081  0C0F  2BFF               	goto	i1l1236
  5082  0C10                     u124_20:
  5083  0C10                     i1l1240:
  5084  0C10  3001               	movlw	1
  5085  0C11  00F8               	movwf	??___lldiv
  5086  0C12                     u125_25:
  5087  0C12  1003               	clrc
  5088  0C13  0DF9               	rlf	___lldiv@quotient,f
  5089  0C14  0DFA               	rlf	___lldiv@quotient+1,f
  5090  0C15  0DFB               	rlf	___lldiv@quotient+2,f
  5091  0C16  0DFC               	rlf	___lldiv@quotient+3,f
  5092  0C17  0BF8               	decfsz	??___lldiv,f
  5093  0C18  2C12               	goto	u125_25
  5094  0C19                     i1l1242:
  5095  0C19  0873               	movf	___lldiv@divisor+3,w
  5096  0C1A  0277               	subwf	___lldiv@dividend+3,w
  5097  0C1B  1D03               	skipz
  5098  0C1C  2C27               	goto	u126_25
  5099  0C1D  0872               	movf	___lldiv@divisor+2,w
  5100  0C1E  0276               	subwf	___lldiv@dividend+2,w
  5101  0C1F  1D03               	skipz
  5102  0C20  2C27               	goto	u126_25
  5103  0C21  0871               	movf	___lldiv@divisor+1,w
  5104  0C22  0275               	subwf	___lldiv@dividend+1,w
  5105  0C23  1D03               	skipz
  5106  0C24  2C27               	goto	u126_25
  5107  0C25  0870               	movf	___lldiv@divisor,w
  5108  0C26  0274               	subwf	___lldiv@dividend,w
  5109  0C27                     u126_25:
  5110  0C27  1C03               	skipc
  5111  0C28  2C2A               	goto	u126_21
  5112  0C29  2C2B               	goto	u126_20
  5113  0C2A                     u126_21:
  5114  0C2A  2C3A               	goto	i1l1248
  5115  0C2B                     u126_20:
  5116  0C2B                     i1l1244:
  5117  0C2B  0870               	movf	___lldiv@divisor,w
  5118  0C2C  02F4               	subwf	___lldiv@dividend,f
  5119  0C2D  0871               	movf	___lldiv@divisor+1,w
  5120  0C2E  1C03               	skipc
  5121  0C2F  0F71               	incfsz	___lldiv@divisor+1,w
  5122  0C30  02F5               	subwf	___lldiv@dividend+1,f
  5123  0C31  0872               	movf	___lldiv@divisor+2,w
  5124  0C32  1C03               	skipc
  5125  0C33  0F72               	incfsz	___lldiv@divisor+2,w
  5126  0C34  02F6               	subwf	___lldiv@dividend+2,f
  5127  0C35  0873               	movf	___lldiv@divisor+3,w
  5128  0C36  1C03               	skipc
  5129  0C37  0F73               	incfsz	___lldiv@divisor+3,w
  5130  0C38  02F7               	subwf	___lldiv@dividend+3,f
  5131  0C39                     i1l1246:
  5132  0C39  1479               	bsf	___lldiv@quotient,0
  5133  0C3A                     i1l1248:
  5134  0C3A  3001               	movlw	1
  5135  0C3B                     u127_25:
  5136  0C3B  1003               	clrc
  5137  0C3C  0CF3               	rrf	___lldiv@divisor+3,f
  5138  0C3D  0CF2               	rrf	___lldiv@divisor+2,f
  5139  0C3E  0CF1               	rrf	___lldiv@divisor+1,f
  5140  0C3F  0CF0               	rrf	___lldiv@divisor,f
  5141  0C40  3EFF               	addlw	-1
  5142  0C41  1D03               	skipz
  5143  0C42  2C3B               	goto	u127_25
  5144  0C43                     i1l1250:
  5145  0C43  3001               	movlw	1
  5146  0C44  02FD               	subwf	___lldiv@counter,f
  5147  0C45  1D03               	btfss	3,2
  5148  0C46  2C48               	goto	u128_21
  5149  0C47  2C49               	goto	u128_20
  5150  0C48                     u128_21:
  5151  0C48  2C10               	goto	i1l1240
  5152  0C49                     u128_20:
  5153  0C49                     i1l1252:
  5154  0C49  087C               	movf	___lldiv@quotient+3,w
  5155  0C4A  00F3               	movwf	?___lldiv+3
  5156  0C4B  087B               	movf	___lldiv@quotient+2,w
  5157  0C4C  00F2               	movwf	?___lldiv+2
  5158  0C4D  087A               	movf	___lldiv@quotient+1,w
  5159  0C4E  00F1               	movwf	?___lldiv+1
  5160  0C4F  0879               	movf	___lldiv@quotient,w
  5161  0C50  00F0               	movwf	?___lldiv
  5162  0C51                     i1l202:
  5163  0C51  0008               	return
  5164  0C52                     __end_of___lldiv:
  5165  007E                     btemp	set	126	;btemp
  5166  007E                     wtemp0	set	126
  5167                           
  5168                           	psect	config
  5169                           
  5170                           ;Config register CONFIG1 @ 0x2007
  5171                           ;	Oscillator Selection bits
  5172                           ;	FOSC = HS, HS oscillator: High-speed crystal/resonator on RA6/OSC2/CLKOUT and RA7/OSC1
      +                          /CLKIN
  5173                           ;	Watchdog Timer Enable bit
  5174                           ;	WDTE = OFF, WDT disabled and can be enabled by SWDTEN bit of the WDTCON register
  5175                           ;	Power-up Timer Enable bit
  5176                           ;	PWRTE = OFF, PWRT disabled
  5177                           ;	RE3/MCLR pin function select bit
  5178                           ;	MCLRE = OFF, RE3/MCLR pin function is digital input, MCLR internally tied to VDD
  5179                           ;	Code Protection bit
  5180                           ;	CP = OFF, Program memory code protection is disabled
  5181                           ;	Data Code Protection bit
  5182                           ;	CPD = OFF, Data memory code protection is disabled
  5183                           ;	Brown Out Reset Selection bits
  5184                           ;	BOREN = OFF, BOR disabled
  5185                           ;	Internal External Switchover bit
  5186                           ;	IESO = OFF, Internal/External Switchover mode is disabled
  5187                           ;	Fail-Safe Clock Monitor Enabled bit
  5188                           ;	FCMEN = OFF, Fail-Safe Clock Monitor is disabled
  5189                           ;	Low Voltage Programming Enable bit
  5190                           ;	LVP = OFF, RB3 pin has digital I/O, HV on MCLR must be used for programming
  5191                           ;	In-Circuit Debugger Mode bit
  5192                           ;	DEBUG = 0x1, unprogrammed default
  5193  2007                     	org	8199
  5194  2007  20D2               	dw	8402
  5195                           
  5196                           ;Config register CONFIG2 @ 0x2008
  5197                           ;	Brown-out Reset Selection bit
  5198                           ;	BOR4V = BOR40V, Brown-out Reset set to 4.0V
  5199                           ;	Flash Program Memory Self Write Enable bits
  5200                           ;	WRT = OFF, Write protection off
  5201  2008                     	org	8200
  5202  2008  3FFF               	dw	16383

Data Sizes:
    Strings     0
    Constant    0
    Data        10
    BSS         9
    Persistent  6
    Stack       0

Auto Spaces:
    Space          Size  Autos    Used
    COMMON           14     14      14
    BANK0            80     49      64
    BANK1            80     34      44
    BANK3            96      0       0
    BANK2            96      0       0

Pointer List with Targets:

    None.

Critical Paths under _main in COMMON

    None.

Critical Paths under _ISR in COMMON

    _SevenSeg1_Write->___lldiv
    ___llmod->___lldiv

Critical Paths under _main in BANK0

    _main->___fldiv
    ___lmul->___fltol
    ___flmul->___xxtofl
    ___fldiv->___flmul

Critical Paths under _ISR in BANK0

    _ISR->_SevenSeg1_Write
    _SevenSeg1_Write->___llmod

Critical Paths under _main in BANK1

    _main->___fldiv
    ___fldiv->___flmul

Critical Paths under _ISR in BANK1

    None.

Critical Paths under _main in BANK3

    None.

Critical Paths under _ISR in BANK3

    None.

Critical Paths under _main in BANK2

    None.

Critical Paths under _ISR in BANK2

    None.

Call Graph Tables:

 ---------------------------------------------------------------------------------
 (Depth) Function   	        Calls       Base Space   Used Autos Params    Refs
 ---------------------------------------------------------------------------------
 (0) _main                                                 3     3      0    6233
                                             31 BANK1      3     3      0
                           _ADC_Init
                           _ADC_Read
                            ___fldiv
                             ___flge
                            ___flmul
                            ___fltol
                             ___lmul
                           ___xxtofl
 ---------------------------------------------------------------------------------
 (1) ___xxtofl                                            14    10      4     398
                                             14 BANK0     14    10      4
 ---------------------------------------------------------------------------------
 (1) ___lmul                                              13     5      8     396
                                             25 BANK0     13     5      8
                            ___fltol (ARG)
 ---------------------------------------------------------------------------------
 (1) ___fltol                                             11     7      4     381
                                             14 BANK0     11     7      4
 ---------------------------------------------------------------------------------
 (1) ___flmul                                             26    18      8    3353
                                             28 BANK0     13     5      8
                                              0 BANK1     13    13      0
                          __Umul8_16
                           ___xxtofl (ARG)
 ---------------------------------------------------------------------------------
 (2) __Umul8_16                                            9     7      2     980
                                             14 BANK0      9     7      2
 ---------------------------------------------------------------------------------
 (1) ___flge                                              12     4      8     334
                                             14 BANK0     12     4      8
 ---------------------------------------------------------------------------------
 (1) ___fldiv                                             26    18      8    1273
                                             41 BANK0      8     0      8
                                             13 BANK1     18    18      0
                            ___flmul (ARG)
                           ___xxtofl (ARG)
 ---------------------------------------------------------------------------------
 (1) _ADC_Read                                             5     3      2      98
                                             14 BANK0      5     3      2
 ---------------------------------------------------------------------------------
 (1) _ADC_Init                                             0     0      0       0
 ---------------------------------------------------------------------------------
 Estimated maximum stack depth 2
 ---------------------------------------------------------------------------------
 (Depth) Function   	        Calls       Base Space   Used Autos Params    Refs
 ---------------------------------------------------------------------------------
 (3) _ISR                                                  3     3      0    1233
                                             11 BANK0      3     3      0
                    _SevenSeg1_Write
                       _display_data
 ---------------------------------------------------------------------------------
 (4) _display_data                                         2     2      0       0
                                              0 COMMON     2     2      0
 ---------------------------------------------------------------------------------
 (4) _SevenSeg1_Write                                      1     1      0    1233
                                             10 BANK0      1     1      0
                            ___lldiv
                            ___llmod
 ---------------------------------------------------------------------------------
 (5) ___llmod                                             10     2      8     615
                                              0 BANK0     10     2      8
                            ___lldiv (ARG)
 ---------------------------------------------------------------------------------
 (5) ___lldiv                                             14     6      8     618
                                              0 COMMON    14     6      8
 ---------------------------------------------------------------------------------
 Estimated maximum stack depth 5
 ---------------------------------------------------------------------------------

 Call Graph Graphs:

 _main (ROOT)
   _ADC_Init
   _ADC_Read
   ___fldiv
     ___flmul (ARG)
       __Umul8_16
       ___xxtofl (ARG)
     ___xxtofl (ARG)
   ___flge
   ___flmul
   ___fltol
   ___lmul
     ___fltol (ARG)
   ___xxtofl

 _ISR (ROOT)
   _SevenSeg1_Write
     ___lldiv
     ___llmod
       ___lldiv (ARG)
   _display_data

 Address spaces:
Name               Size   Autos  Total    Cost      Usage
BANK3               60      0       0       9        0.0%
BITBANK3            60      0       0       8        0.0%
SFR3                 0      0       0       4        0.0%
BITSFR3              0      0       0       4        0.0%
BANK2               60      0       0      11        0.0%
BITBANK2            60      0       0      10        0.0%
SFR2                 0      0       0       5        0.0%
BITSFR2              0      0       0       5        0.0%
BANK1               50     22      2C       7       55.0%
BITBANK1            50      0       0       6        0.0%
SFR1                 0      0       0       2        0.0%
BITSFR1              0      0       0       2        0.0%
BANK0               50     31      40       5       80.0%
BITBANK0            50      0       0       4        0.0%
SFR0                 0      0       0       1        0.0%
BITSFR0              0      0       0       1        0.0%
COMMON               E      E       E       1      100.0%
BITCOMMON            E      0       0       0        0.0%
CODE                 0      0       0       0        0.0%
DATA                 0      0      7A      12        0.0%
ABS                  0      0      7A       3        0.0%
NULL                 0      0       0       0        0.0%
STACK                0      0       0       2        0.0%
EEDATA             100      0       0       0        0.0%


Microchip Technology PIC Macro Assembler V2.32 build 20210201212658 
Symbol Table                                                                                   Sun Aug 14 10:30:27 2022

            ___fldiv@aexp 00BE              ___fldiv@bexp 00BD                         pc 0002  
            ___fldiv@sign 00B6                        l80 0AFD                        l56 064A  
                      l74 07FF                        l77 0AF1                        _GO 00F9  
                      fsr 0004       __Umul8_16@word_mpld 0034             ?_display_data 0070  
                     l340 0768                       l180 0B45                       l343 07D4  
                     l344 07ED                       l352 0CCD                       l601 0749  
                     l362 0CCD                       l531 0F39                       l515 0DE9  
                     l612 0713                       l517 0FFF                       l613 071F  
                     l605 06F7                       l359 0CB8                       l537 0FD7  
                     l561 04C0                       l539 0FEB                       l555 058C  
                     l574 0ABF                       l567 056E                       l576 0AD1  
                     l599 06B2                       _ISR 0A93                       _Vin 005A  
                     fsr0 0004                       indf 0000              ___flmul@aexp 00A1  
            ___flmul@bexp 00A6              ___flmul@sign 00A0              ___flmul@temp 00AB  
            ___flmul@prod 00A7                      ?_ISR 0070              ___fltol@exp1 0038  
                    l1300 0AF5                      l1400 0CAD                      l1410 0D7E  
                    l1402 0CBD                      l1500 0F02                      l1420 0D9D  
                    l1412 0D84                      l1404 0CC2                      l1340 0B0C  
                    l1510 0F20                      l1502 0F0D                      l1430 0DBC  
                    l1422 0D9F                      l1414 0D87                      l1406 0D6B  
                    l1350 074A                      l1342 0B23                      l1520 0F57  
                    l1512 0F34                      l1504 0F13                      l1440 0DDB  
                    l1432 0DC2                      l1416 0D8E                      l1424 0DA1  
                    l1408 0D74                      l1360 07AC                      l1352 0760  
                    l1344 0B2C                      l1336 0AFE                      l1290 07F8  
                    l1530 0FB7                      l1522 0F5B                      l1506 0F19  
                    l1450 0E05                      l1442 0DDD                      l1434 0DC5  
                    l1426 0DAB                      l1418 0D93                      l1362 07B0  
                    l1354 077C                      l1370 0C52                      l1346 0B3D  
                    l1338 0B08                      l1292 07FB                      l1540 0FE1  
                    l1532 0FC6                      l1524 0F90                      l1516 0F40  
                    l1508 0F1C                      l1460 0E20                      l1436 0DCC  
                    l1444 0DDF                      l1428 0DB2                      l1364 07EA  
                    l1356 0784                      l1380 0C7E                      l1372 0C5F  
                    l1700 06C3                      l1294 0AD2                      l1542 0FE5  
                    l1534 0FCA                      l1518 0F47                      l1526 0F98  
                    l1470 0E60                      l1462 0E32                      l1446 0DF1  
                    l1454 0E0E                      l1438 0DD1                      l1366 07EC  
                    l1358 0788                      l1382 0C86                      l1710 06EE  
                    l1702 06C8                      l1296 0AE0                      l1536 0FD4  
                    l1528 0FA7                      l1472 0E65                      l1480 0E8D  
                    l1464 0E4A                      l1456 0E15                      l1448 0DFD  
                    l1800 0051                      l1392 0C94                      l1384 0C88  
                    l1376 0C68                      l1720 0721                      l1712 06FE  
                    l1704 06D5                      l1298 0AEE                      l1538 0FDD  
                    l1490 0EE2                      l1482 0EAF                      l1474 0E7B  
                    l1466 0E54                      l1810 0074                      l1802 0056  
                    l1386 0C8C                      l1394 0CA6                      l1378 0C7D  
                    l1722 0737                      l1714 0709                      l1706 06DC  
                    l1492 0EEA                      l1484 0EB0                      l1476 0E7F  
                    l1468 0E5E                      l1900 04CC                      l1820 0093  
                    l1812 007E                      l1804 0060                      l1724 073C  
                    l1716 070D                      l1708 06E0                      l1494 0EEC  
                    l1486 0ED8                      l1478 0E82                      l1910 0526  
                    l1902 04DA                      l1830 00B6                      l1822 009D  
                    l1814 0084                      l1806 0063                      l1726 0740  
                    l1718 0717                      l1496 0EFB                      l1488 0EDC  
                    l1920 055E                      l1912 0531                      l1904 04DE  
                    l1840 012B                      l1824 00A0                      l1816 0087  
                    l1808 006D                      l1728 0741                      l1498 0EFF  
                    l1922 0562                      l1914 0540                      l1906 0513  
                    l1850 0212                      l1842 015B                      l1834 00C1  
                    l1826 00AA                      l1818 008E                      l1690 0696  
                    l1930 058D                      l1780 0AB5                      l1924 0563  
                    l1916 054A                      l1908 0519                      l1860 02CF  
                    l1852 0228                      l1844 01A3                      l1836 00D9  
                    l1828 00B1                      l1692 069A                      l1940 059E  
                    l1932 0590                      l1782 0AB9                      l1926 0576  
                    l1918 054C                      l1870 03F4                      l1862 0304  
                    l1854 025D                      l1846 01D3                      l1838 00F6  
                    l1790 002E                      l1694 06AA                      l1950 05A5  
                    l1942 059F                      l1934 0594                      l1784 0AC8  
                    l1776 0AAC                      l1880 0478                      l1872 043C  
                    l1864 0351                      l1856 0275                      l1848 0203  
                    l1792 0037                      l1696 06BA                      l1688 0691  
                    l1960 0618                      l1952 05A6                      l1944 05A0  
                    l1936 059A                      l1786 0ACD                      l1778 0AAE  
                    l1890 0495                      l1882 0479                      l1874 044B  
                    l1866 0369                      l1858 02AA                      l1794 0041  
                    l1962 061B                      l1954 05AB                      l1946 05A3  
                    l1938 059D                      l1892 0499                      l1884 0488  
                    l1876 0463                      l1868 03B6                      l1796 0047  
                    l1964 064E                      l1956 05BB                      l1948 05A4  
                    l1894 04BB                      l1878 0472                      l1886 0490  
                    l1798 004A                      l1966 067C                      l1958 05FF  
                    l1888 0494                      l1898 04C7                      u1400 0B0C  
                    u1401 0B0B                      u1411 0B15                      u1412 0B1C  
                    u2300 069A                      u1501 07BF                      u1413 0B23  
                    u2301 0699                      u1510 07EA                      u1502 07C0  
                    u2310 06BA                      u1511 07E9                      u1503 07C5  
                    u2311 06B9                      u1504 07C6                      u1600 0CBD  
                    u1520 0C5F                      u1440 0B3D                      u2400 072C  
                    u1505 07CB                      u1601 0CBC                      u1521 0C5E  
                    u1441 0B3C                      u1425 0B25                      u1506 07CC  
                    u1450 0760                      u1610 0CC2                      u1530 0C76  
                    u2410 073C                      u2330 06DB                      u1515 07E6  
                    u1451 075F                      u1611 0CC1                      u1435 0B2D  
                    u2411 073B                      u2331 06DA                      u1700 0E65  
                    u1620 0D84                      u1460 077C                      u2500 0084  
                    u1540 0C8C                      u2420 0740                      u1701 0E64  
                    u1621 0D83                      u1461 077B                      u2501 0083  
                    u1541 0C8B                      u2421 073F                      u2405 0727  
                    u2325 06CD                      u1390 0AF5                      u1630 0D8E  
                    u1470 0788                      u2510 008E                      u1550 0C93  
                    u2350 06FD                      u1391 0AF4                      u1631 0D8D  
                    u1471 0787                      u2511 008D                      u1551 0C92  
                    u1535 0C71                      u2351 06FC                      u1800 0EFF  
                    u1640 0D93                      u2440 0AB9                      u2520 0093  
                    u1385 0AD7                      u1801 0EFE                      u1641 0D92  
                    u1481 0797                      u2441 0AB8                      u2601 0243  
                    u2521 0092                      u2345 06EF                      u1730 0E7F  
                    u1650 0DC2                      u1490 07B0                      u1482 0798  
                    u2602 024E                      u2530 00B1                      u1570 0CA5  
                    u2370 070D                      u2290 0696                      u1731 0E7E  
                    u1715 0E67                      u1651 0DC1                      u1491 07AF  
                    u1483 079D                      u2611 0290                      u2603 0259  
                    u2531 00B0                      u1571 0CA4                      u2371 070C  
                    u2291 0695                      u1900 0FC6                      u1820 0F19  
                    u1660 0DCC                      u1484 079E                      u2460 0ACD  
                    u2612 029B                      u2540 00B6                      u1580 0CAC  
                    u2380 0713                      u1901 0FC5                      u1821 0F18  
                    u1725 0E70                      u1661 0DCB                      u1485 07A3  
                    u2461 0ACC                      u2613 02A6                      u2541 00B5  
                    u1581 0CAB                      u1565 0C95                      u2381 0712  
                    u2365 0702                      u1910 0FE1                      u1830 0F20  
                    u1750 0EAF                      u1670 0DD1                      u1486 07A4  
                    u2470 0047                      u2390 0717                      u1911 0FE0  
                    u1831 0F1F                      u1815 0F06                      u1751 0EAE  
                    u1671 0DD0                      u2455 0AC0                      u2631 02EA  
                    u2551 0141                      u2471 0046                      u2391 0716  
                    u1840 0F34                      u1760 0ED4                      u1680 0DF1  
                    u2800 04FB                      u2720 0478                      u2632 02F5  
                    u2552 014C                      u2480 0051                      u1905 0FC2  
                    u1841 0F33                      u1745 0E86                      u1681 0DF0  
                    u2721 0477                      u2705 0440                      u2641 0337  
                    u2633 0300                      u2625 02AE                      u2561 0171  
                    u2553 0157                      u2481 0050                      u1850 0F3F  
                    u1770 0EE2                      u1690 0E15                      u2810 0526  
                    u2642 0342                      u2562 017C                      u2490 0056  
                    u1851 0F3E                      u1771 0EE1                      u1755 0EAB  
                    u1691 0E14                      u2811 0525                      u2715 0467  
                    u2651 0384                      u2643 034D                      u2571 01B9  
                    u2563 0187                      u2491 0055                      u1595 0CAF  
                    u1860 0F47                      u1780 0EEA                      u2820 0540  
                    u2740 0494                      u2660 03C8                      u2652 038F  
                    u2572 01C4                      u1861 0F46                      u1781 0EE9  
                    u1765 0EBD                      u2821 053F                      u2805 04F6  
                    u2741 0493                      u2653 039A                      u2581 01E9  
                    u2573 01CF                      u1870 0F5B                      u1766 0EC0  
                    u2830 0562                      u2750 0499                      u2582 01F4  
                    u1871 0F5A                      u1767 0EC7                      u2831 0561  
                    u2815 0522                      u2751 0498                      u2735 047D  
                    u2671 03DA                      u2583 01FF                      u1880 0F78  
                    u1768 0ECA                      u2760 04BB                      u2680 0410  
                    u2672 03E5                      u2840 0618                      u1769 0ED1  
                    u2825 053C                      u2761 04BA                      u2673 03F0  
                    u2665 03C3                      u2841 0617                      u1890 0FA7  
                    u2770 04C6                      u1891 0FA6                      u1795 0EF0  
                    u2771 04C5                      u2691 0422                      u2595 0207  
                    u2780 04CC                      u2692 042D                      u1885 0F73  
                    u2781 04CB                      u2693 0438                      u2685 040B  
                    u2790 04DE                      u1895 0FA3                      u2791 04DD  
                    u2857 0684                      u2867 0AE8                      i1l63 0D6A  
                    i1l71 0B95                      i1l68 0A9E                      _TMR0 0001  
                    _main 058D                      btemp 007E          __end_of_ADC_Init 0800  
        __end_of_ADC_Read 0AFE                      start 0010           ___fldiv@new_exp 00B7  
                   ??_ISR 002B            ??_display_data 0070             ___fltol@sign1 0037  
                   ?_main 0070           __end_of___fldiv 1000           __end_of___flmul 058D  
         __end_of___fltol 0CCE           __end_of___lldiv 0C52           __end_of___llmod 0BEC  
                   i1l202 0C51                     i1l388 0BEB                     _PORTD 0008  
                   _TRISD 0088       ___lmul@multiplicand 003D                     _check 0059  
                   pclath 000A                     status 0003                     wtemp0 007E  
         __initialization 0013              __end_of_main 068E         ??_SevenSeg1_Write 002A  
                  ??_main 00BF                    _ADCON0 001F                    _ADCON1 009F  
        ___llmod@dividend 0024                    _ADRESH 001E                    _ADRESL 009E  
                  i1l1310 0B4F                    i1l1240 0C10                    i1l1232 0BEC  
                  i1l1304 0CCE                    i1l1320 0B6C                    i1l1312 0B58  
                  i1l1250 0C43                    i1l1242 0C19                    i1l1234 0BFC  
                  i1l1330 0B88                    i1l1322 0B6F                    i1l1314 0B5B  
                  i1l1306 0B46                    i1l1244 0C2B                    i1l1236 0BFF  
                  i1l1252 0C49                    i1l1260 0BA3                    i1l1332 0B89  
                  i1l1324 0B75                    i1l1316 0B61                    i1l1308 0B4E  
                  i1l1246 0C39                    i1l1238 0C0C                    i1l1270 0BDD  
                  i1l1262 0BB0                    i1l1334 0B92                    i1l1326 0B76  
                  i1l1318 0B62                    i1l1248 0C3A                    i1l1264 0BB4  
                  i1l1272 0BE3                    i1l1256 0B96                    i1l1328 0B7F  
                  i1l1266 0BC6                    i1l1258 0BA0                    i1l1268 0BD4  
                  u122_20 0BFC                    u122_21 0BFB                    i1l1770 0A93  
                  i1l1772 0A98                    u130_25 0BA5                    i1l1774 0A9D  
                  u131_20 0BB4                    u131_21 0BB3                    u123_25 0C01  
                  u124_20 0C10                    u132_20 0BC6                    u124_21 0C0F  
                  u132_21 0BC5                    u132_25 0BC2                    u125_25 0C12  
                  u133_25 0BD5                    u126_20 0C2B                    u134_20 0BE3  
                  u126_21 0C2A                    u134_21 0BE2                    u126_25 0C27  
                  u127_25 0C3B                    u128_20 0C49                    u128_21 0C48  
                  u129_20 0BA0                    _INTCON 000B                    u129_21 0B9F  
                  u290_27 0B8D                    u287_27 0B53                    u288_27 0B67  
                  u289_27 0B7A          __end_of___xxtofl 074A                    _Digits 0055  
                  ___flge 074A                    ___lmul 0AFE                 ??___fldiv 00AD  
               ??___flmul 0044                 ??___fltol 0032                 ??___lldiv 0078  
               ??___llmod 0028        __size_of__Umul8_16 0029                 ?_ADC_Init 0070  
               ?_ADC_Read 002E                    saved_w 007E                ___flge@ff1 002E  
              ___flge@ff2 0032              ___xxtofl@arg 0038              ___xxtofl@exp 0037  
            ___xxtofl@val 002E   __end_of__initialization 002A      __end_of_display_data 0B96  
              ___fltol@f1 002E            __pcstackCOMMON 0070              __pidataBANK1 07EE  
              ??_ADC_Init 002E                ??_ADC_Read 0030                __pbssBANK0 0051  
       __end_of__Umul8_16 0AD2                __pmaintext 058D                   ?___flge 002E  
     ADC_Read@ADC_channel 002E                   ?___lmul 0039                __pintentry 0004  
          ___lmul@product 0042                 ?___xxtofl 002E                   _GO_DONE 00F9  
         _SevenSeg1_Write 0CCE                 _ADC_Value 005E           __size_of___flge 00A4  
                 ___fldiv 0D6B           __size_of___lmul 0048                   ___flmul 002E  
                 ___fltol 0C52                   ___lldiv 0BEC                   ___llmod 0B96  
                 __ptext1 068E                   __ptext2 0AFE                   __ptext3 0C52  
                 __ptext4 002E                   __ptext5 0AA9                   __ptext6 074A  
                 __ptext7 0D6B                   __ptext8 0AD2                   __ptext9 07F8  
            __size_of_ISR 0016                ??___xxtofl 0032     __size_of_display_data 0050  
    end_of_initialization 002A               _Vin_convert 0051           ___lldiv@divisor 0070  
           _Segments_Code 00C2           ___lldiv@counter 007D                 _PORTCbits 0007  
               _PORTDbits 0008              _display_data 0B46             ___xxtofl@sign 0036  
               _TRISCbits 0087               ___fldiv@grs 00B9               ___fldiv@rem 00B2  
       __size_of_ADC_Init 0008         __size_of_ADC_Read 002C   __end_of_SevenSeg1_Write 0D6B  
             ___flmul@grs 00A2            __end_of___flge 07EE            __end_of___lmul 0B46  
     start_initialization 0013               __end_of_ISR 0AA9           ___llmod@divisor 0020  
         ___llmod@counter 0029                  ??___flge 0036                  ??___lmul 0041  
              init_fetch0 0A80                 __Umul8_16 0AA9               __pdataBANK1 00C2  
               ___fldiv@a 0049                 ___fldiv@b 004D                 ___flmul@a 0040  
               ___flmul@b 003C                 ___latbits 0002             __pcstackBANK0 0020  
           __pcstackBANK1 00A0         __size_of___xxtofl 00BC          ?_SevenSeg1_Write 0070  
               __pnvBANK0 005A                  ?___fldiv 0049                  ?___flmul 003C  
                ?___fltol 002E                  ?___lldiv 0070                  ?___llmod 0020  
              ?__Umul8_16 002E                  _ADC_Init 07F8                  _ADC_Read 0AD2  
       interrupt_function 0004         ___lmul@multiplier 0039               ??__Umul8_16 0030  
        __size_of___fldiv 0295          __size_of___flmul 055F          __size_of___fltol 007C  
        __size_of___lldiv 0066          __size_of___llmod 0056                  ___xxtofl 068E  
                __ptext10 0A93                  __ptext11 0B46                  __ptext12 0CCE  
                __ptext13 0B96                  __ptext14 0BEC             __size_of_main 0101  
              _INTCONbits 000B                  init_ram0 0A84                  intlevel1 0000  
        ___lldiv@dividend 0074    __Umul8_16@multiplicand 002E                _OPTION_REG 0081  
        ___lldiv@quotient 0079      __Umul8_16@multiplier 0036  __size_of_SevenSeg1_Write 009D  
       __Umul8_16@product 0032  
